///////////////////////////////////////////////////////////////////////////////
//
// IAR C/C++ Compiler V2.10.2.149 for STM8                09/Jun/2015  11:00:14
// Copyright 2010-2014 IAR Systems AB.
//
//    Source file  =  
//        C:\Users\THINK\Documents\GitHub\FTT-TwoLine-Operater\STM8L051\Project\main_code\main.c
//    Command line =  
//        C:\Users\THINK\Documents\GitHub\FTT-TwoLine-Operater\STM8L051\Project\main_code\main.c
//        -e -Ohz --debug --code_model medium --data_model medium -o
//        C:\Users\THINK\Documents\GitHub\FTT-TwoLine-Operater\STM8L051\Project\main_code\EWSTM8\relase\Obj\
//        --dlib_config "C:\Program Files (x86)\IAR Systems\Embedded Workbench
//        7.0\stm8\LIB\dlstm8mmn.h" -D USE_STM8L1526_EVAL -D STM8L05X_LD_VL -lC
//        C:\Users\THINK\Documents\GitHub\FTT-TwoLine-Operater\STM8L051\Project\main_code\EWSTM8\relase\List\
//        -lA
//        C:\Users\THINK\Documents\GitHub\FTT-TwoLine-Operater\STM8L051\Project\main_code\EWSTM8\relase\List\
//        -I
//        C:\Users\THINK\Documents\GitHub\FTT-TwoLine-Operater\STM8L051\Project\main_code\EWSTM8\..\
//        -I
//        C:\Users\THINK\Documents\GitHub\FTT-TwoLine-Operater\STM8L051\Project\main_code\EWSTM8\..\..\..\Libraries\STM8L15x_StdPeriph_Driver\inc\
//        -I
//        C:\Users\THINK\Documents\GitHub\FTT-TwoLine-Operater\STM8L051\Project\main_code\EWSTM8\..\..\..\Utilities\STM8_EVAL\
//        -I
//        C:\Users\THINK\Documents\GitHub\FTT-TwoLine-Operater\STM8L051\Project\main_code\EWSTM8\..\..\..\Utilities\STM8_EVAL\STM8L1526_EVAL\
//        -I
//        C:\Users\THINK\Documents\GitHub\FTT-TwoLine-Operater\STM8L051\Project\main_code\EWSTM8\..\..\..\Utilities\STM8_EVAL\Common\
//        -I
//        C:\Users\THINK\Documents\GitHub\FTT-TwoLine-Operater\STM8L051\Project\main_code\EWSTM8\..\..\..\Utilities\Misc\
//        --require_prototypes --vregs 16
//    List file    =  
//        C:\Users\THINK\Documents\GitHub\FTT-TwoLine-Operater\STM8L051\Project\main_code\EWSTM8\relase\List\main.s
//
///////////////////////////////////////////////////////////////////////////////

        RTMODEL "__SystemLibrary", "DLib"
        RTMODEL "__code_model", "medium_or_large"
        RTMODEL "__core", "stm8"
        RTMODEL "__data_model", "medium"
        RTMODEL "__rt_version", "4"

        EXTERN ?add32_l0_l0_l1
        EXTERN ?b0
        EXTERN ?b1
        EXTERN ?b10
        EXTERN ?b11
        EXTERN ?b12
        EXTERN ?b13
        EXTERN ?b14
        EXTERN ?b15
        EXTERN ?b2
        EXTERN ?b3
        EXTERN ?b4
        EXTERN ?b5
        EXTERN ?b6
        EXTERN ?b8
        EXTERN ?b9
        EXTERN ?epilogue_l2
        EXTERN ?epilogue_l2_l3
        EXTERN ?epilogue_l2_w6
        EXTERN ?epilogue_w4
        EXTERN ?inc32_l0_l0
        EXTERN ?inc32_l2_l2
        EXTERN ?inc32_l3_l3
        EXTERN ?load32_l0_0x
        EXTERN ?mov_l0_l2
        EXTERN ?mov_l0_l3
        EXTERN ?mov_l1_l0
        EXTERN ?mov_l1_l2
        EXTERN ?mov_l2_l0
        EXTERN ?mov_l3_l2
        EXTERN ?mov_w1_w4
        EXTERN ?mov_w1_w6
        EXTERN ?move1616_v_x_y_a
        EXTERN ?mul16_x_x_w0
        EXTERN ?pop_l3
        EXTERN ?pop_w4
        EXTERN ?pop_w6
        EXTERN ?push_l2
        EXTERN ?push_l3
        EXTERN ?push_w4
        EXTERN ?push_w6
        EXTERN ?sext32_l0_x
        EXTERN ?ucmp32_c_l0_l1
        EXTERN ?w0
        EXTERN ?w1
        EXTERN ?w2
        EXTERN ?w3
        EXTERN ?w4
        EXTERN ?w5
        EXTERN ?w6
        EXTERN ?w7
        EXTERN CLK_PeripheralClockConfig
        EXTERN CLK_RTCClockConfig
        EXTERN CLK_SYSCLKDivConfig
        EXTERN CLK_SYSCLKSourceConfig
        EXTERN EXTI_SetPinSensitivity
        EXTERN FLASH_Lock
        EXTERN FLASH_ProgramByte
        EXTERN FLASH_ReadByte
        EXTERN FLASH_SetProgrammingTime
        EXTERN FLASH_Unlock
        EXTERN GPIO_Init
        EXTERN GPIO_ReadInputDataBit
        EXTERN GPIO_ReadOutputDataBit
        EXTERN GPIO_ResetBits
        EXTERN GPIO_SetBits
        EXTERN GPIO_ToggleBits
        EXTERN IWDG_Enable
        EXTERN IWDG_ReloadCounter
        EXTERN IWDG_SetPrescaler
        EXTERN IWDG_SetReload
        EXTERN IWDG_WriteAccessCmd
        EXTERN RTC_ITConfig
        EXTERN RTC_SetWakeUpCounter
        EXTERN RTC_WakeUpClockConfig
        EXTERN RTC_WakeUpCmd
        EXTERN SPI_Cmd
        EXTERN SPI_DeInit
        EXTERN SPI_Init
        EXTERN TIM2_ClearFlag
        EXTERN TIM2_Cmd
        EXTERN TIM2_ITConfig
        EXTERN TIM2_TimeBaseInit
        EXTERN TIM3_ClearFlag
        EXTERN TIM3_ITConfig
        EXTERN TIM3_TimeBaseInit
        EXTERN TIM4_ClearFlag
        EXTERN TIM4_Cmd
        EXTERN TIM4_ITConfig
        EXTERN TIM4_TimeBaseInit

        PUBLIC ABIO_Function
        PUBLIC AllRadio
        PUBLIC Auto_Exit_LearnMode_Function
        PUBLIC Broadcast_info
        PUBLIC CalculateRssi
        PUBLIC Choose_Line
        PUBLIC ClearFlash
        PUBLIC CommonMode_OperateLine
        PUBLIC ControlByAirLearn_NewWriteInFlash
        PUBLIC FindIdInFlash
        PUBLIC FindIdInFlash_return_num
        PUBLIC FirstPower
        PUBLIC IdNum
        PUBLIC IdStartAddress
        PUBLIC InitAllGpio
        PUBLIC InitRegister
        PUBLIC Key1_Function
        PUBLIC Key1_InterruptPushflag
        PUBLIC Key1_Short_Pushed
        PUBLIC Key2_Function
        PUBLIC Key2_InterruptPushflag
        PUBLIC Key2_Short_Pushed
        PUBLIC LearnModeWaitForConfirm
        PUBLIC LearnMode_Function
        PUBLIC Led1_Off
        PUBLIC Led2_Off
        PUBLIC Public_learned_ID_num
        PUBLIC RadioSettings
        PUBLIC Radio_Can_Operated
        PUBLIC Radio_Data
        PUBLIC Radio_Recive
        PUBLIC ReadIdInFlash
        PUBLIC Reply_RequestFlashData
        PUBLIC Reset_CC1100
        PUBLIC Return_FindInFlash
        PUBLIC SaveInfoInFlash
        PUBLIC SpiTxRxByte
        PUBLIC UpdateDatasAdressInFlash
        PUBLIC WaitForConfirm_time
        PUBLIC WriteIdInFlash
        PUBLIC WriteKeyOperationInFlash
        PUBLIC auto_exit_time
        PUBLIC check_key1
        PUBLIC check_key2
        PUBLIC clear_num
        PUBLIC delay
        PUBLIC firstpower
        PUBLIC halRfReceivePacket
        PUBLIC halRfSendPacket
        PUBLIC halSpiReadBurstReg
        PUBLIC halSpiReadReg
        PUBLIC halSpiReadStatus
        PUBLIC halSpiStrobe
        PUBLIC halSpiWriteBurstReg
        PUBLIC halSpiWriteReg
        PUBLIC key1_time_count
        PUBLIC key2_time_count
        PUBLIC learn_mode
        PUBLIC led_blink_time
        PUBLIC led_flash
        PUBLIC length10function
        PUBLIC length20function
        PUBLIC length5function
        PUBLIC length6function
        PUBLIC length7function
        PUBLIC main
        PUBLIC receive_radio_length
        PUBLIC receiveflag
        PUBLIC reply_broadcast
        PUBLIC rtc_flag
        PUBLIC timer2_delay
        PUBLIC timer2_delay_time
        PUBLIC timer2_need_delay
        PUBLIC timer3_Operate_time
        
          CFI Names cfiNames0
          CFI StackFrame CFA SP DATA
          CFI Resource A:8, XL:8, XH:8, YL:8, YH:8, SP:16, CC:8, PC:24, PCL:8
          CFI Resource PCH:8, PCE:8, ?b0:8, ?b1:8, ?b2:8, ?b3:8, ?b4:8, ?b5:8
          CFI Resource ?b6:8, ?b7:8, ?b8:8, ?b9:8, ?b10:8, ?b11:8, ?b12:8, ?b13:8
          CFI Resource ?b14:8, ?b15:8
          CFI ResourceParts PC PCE, PCH, PCL
          CFI EndNames cfiNames0
        
          CFI Common cfiCommon0 Using cfiNames0
          CFI CodeAlign 1
          CFI DataAlign 1
          CFI ReturnAddress PC CODE
          CFI CFA SP+3
          CFI A Undefined
          CFI XL Undefined
          CFI XH Undefined
          CFI YL Undefined
          CFI YH Undefined
          CFI CC Undefined
          CFI PC Frame(CFA, -2)
          CFI PCL Undefined
          CFI PCH Undefined
          CFI PCE Undefined
          CFI ?b0 Undefined
          CFI ?b1 Undefined
          CFI ?b2 Undefined
          CFI ?b3 Undefined
          CFI ?b4 Undefined
          CFI ?b5 Undefined
          CFI ?b6 Undefined
          CFI ?b7 Undefined
          CFI ?b8 SameValue
          CFI ?b9 SameValue
          CFI ?b10 SameValue
          CFI ?b11 SameValue
          CFI ?b12 SameValue
          CFI ?b13 SameValue
          CFI ?b14 SameValue
          CFI ?b15 SameValue
          CFI EndCommon cfiCommon0
        
        
          CFI Common cfiCommon1 Using cfiNames0
          CFI CodeAlign 1
          CFI DataAlign 1
          CFI ReturnAddress PC CODE
          CFI CFA SP+3
          CFI A SameValue
          CFI XL SameValue
          CFI XH SameValue
          CFI YL SameValue
          CFI YH SameValue
          CFI CC Undefined
          CFI PC Frame(CFA, -2)
          CFI PCL Undefined
          CFI PCH Undefined
          CFI PCE Undefined
          CFI ?b0 SameValue
          CFI ?b1 SameValue
          CFI ?b2 SameValue
          CFI ?b3 SameValue
          CFI ?b4 SameValue
          CFI ?b5 SameValue
          CFI ?b6 SameValue
          CFI ?b7 SameValue
          CFI ?b8 SameValue
          CFI ?b9 SameValue
          CFI ?b10 SameValue
          CFI ?b11 SameValue
          CFI ?b12 SameValue
          CFI ?b13 SameValue
          CFI ?b14 SameValue
          CFI ?b15 SameValue
          CFI EndCommon cfiCommon1
        
// C:\Users\THINK\Documents\GitHub\FTT-TwoLine-Operater\STM8L051\Project\main_code\main.c
//    1 /**                               **
//    2         433Mhz CC1101 Receiver
//    3              Xu jiawei
//    4 **                                **/
//    5 
//    6 #include "stm8l15x.h"
//    7 #include "stm8l15x_clk.h"
//    8 #include "stm8l15x_gpio.h" 
//    9 //#include  <math.h>
//   10 
//   11 //设备ID 为     43 20 05 15
//   12 #define  DEVICE_ID_4  0x15
//   13 #define  DEVICE_ID_3  0x05
//   14 #define  DEVICE_ID_2  0x20
//   15 #define  DEVICE_ID_1  0x43
//   16 #define  DEVICE_TYPE  0x21  //双路执行器设备类型码
//   17 
//   18 #define  AI           0x10
//   19 #define  AO           0x30
//   20 #define  BI           0x50
//   21 #define  BO           0x70
//   22 #define  ABIO_TOOGLE  0x20
//   23 
//   24 
//   25 #define  A_LINE1      0x11
//   26 #define  B_LINE1      0x12
//   27 #define  A_LINE2      0x13
//   28 #define  B_LINE2      0x14
//   29 
//   30 #define  LINE_1       0x16
//   31 #define  LINE_2       0x17
//   32 
//   33 #define  ABIO_TOOGLE_LINE1 0x18
//   34 #define  ABIO_TOOGLE_LINE2 0x19
//   35 
//   36 #define  INT8U    unsigned char
//   37 #define  INT16U   unsigned int
//   38 #define  uclong   unsigned long
//   39 #define  ON       0x11
//   40 #define  OFF      0x10
//   41 
//   42 #define  FLAG_ON                      0x11
//   43 #define  RECEIVE_DATA_LENGTH          0x21
//   44 
//   45 #define  FINDINFLASH_FAIL             0x77      //查找ID失败返回值
//   46 #define  MAXLEARNNUM                  10        //ID最大学习数量
//   47 
//   48 #define  IDSTARTADDRESS               0x1010    //第一个ID在Flash中记录的开始位置
//   49 #define  IFFIRSTPOWERNUMADRESS        0x1002    //判断是否第一次开机的标识数在flash中位置
//   50 #define  IDCOUNTADD                   0x1003    //已经学习到的ID的数量
//   51 #define  NEWIDADDRESSINFLASH_PART_1   0x1005    //新ID在Flash中记录的开始位置需要保存
//   52 #define  NEWIDADDRESSINFLASH_PART_2   0x1006  
//   53 
//   54 /***********  SPI IO口宏定义  ************/
//   55 #define  MISO_PORT         GPIOB                                                                                                        
//   56 #define  MOSI_PORT         GPIOB
//   57 #define  SCK_PORT          GPIOB
//   58 #define  CSN_PORT          GPIOB
//   59 #define  MISO_PIN          GPIO_Pin_4      //GPIO_Pin_7           
//   60 #define  MOSI_PIN          GPIO_Pin_6
//   61 #define  SCK_PIN           GPIO_Pin_5
//   62 #define  CSN_PIN           GPIO_Pin_2
//   63 
//   64 #define  MISO_INPUT        GPIO_ReadInputDataBit(GPIOB,GPIO_Pin_4)
//   65 #define  MOSI_1            GPIO_SetBits   (MOSI_PORT,MOSI_PIN)
//   66 #define  MOSI_0            GPIO_ResetBits (MOSI_PORT,MOSI_PIN)  
//   67 #define  SCK_1             GPIO_SetBits   (SCK_PORT,SCK_PIN)
//   68 #define  SCK_0             GPIO_ResetBits (SCK_PORT,SCK_PIN)      
//   69 #define  CSN_1             GPIO_SetBits   (CSN_PORT,CSN_PIN)
//   70 #define  CSN_0             GPIO_ResetBits (CSN_PORT,CSN_PIN)
//   71 
//   72 /***********  LED IO口宏定义  ************/
//   73 #define  LED2_GREEN_PORT   GPIOC 
//   74 #define  LED2_BLUE_PORT    GPIOB
//   75 #define  LED2_RED_PORT     GPIOC
//   76 #define  LED1_GREEN_PORT   GPIOA
//   77 #define  LED1_BLUE_PORT    GPIOA
//   78 #define  LED1_RED_PORT     GPIOA
//   79 
//   80 #define  LED2_GREEN_PIN    GPIO_Pin_6
//   81 #define  LED2_BLUE_PIN     GPIO_Pin_1
//   82 #define  LED2_RED_PIN      GPIO_Pin_5
//   83 #define  LED1_GREEN_PIN    GPIO_Pin_2
//   84 #define  LED1_BLUE_PIN     GPIO_Pin_0
//   85 #define  LED1_RED_PIN      GPIO_Pin_3
//   86 
//   87 #define  LED1_GREEN        GPIO_SetBits(LED1_GREEN_PORT,LED1_GREEN_PIN);   
//   88 #define  LED1_BLUE         GPIO_SetBits(LED1_BLUE_PORT ,LED1_BLUE_PIN );    
//   89 #define  LED1_RED          GPIO_SetBits(LED1_RED_PORT  ,LED1_RED_PIN  );
//   90 #define  LED2_GREEN        GPIO_SetBits(LED2_GREEN_PORT,LED2_GREEN_PIN);
//   91 #define  LED2_BLUE         GPIO_SetBits(LED2_BLUE_PORT ,LED2_BLUE_PIN );
//   92 #define  LED2_RED          GPIO_SetBits(LED2_RED_PORT  ,LED2_RED_PIN  );
//   93 
//   94 /***********  按键 IO口 宏定义  ************/
//   95 #define  KEY1_PORT         GPIOD
//   96 #define  KEY2_PORT         GPIOB
//   97 #define  KEY1_PIN          GPIO_Pin_0
//   98 #define  KEY2_PIN          GPIO_Pin_0 
//   99 #define  KEY1_INPUT        GPIO_ReadInputDataBit(GPIOB,GPIO_Pin_0)    //按键1  
//  100 #define  KEY2_INPUT        GPIO_ReadInputDataBit(GPIOB,GPIO_Pin_7)    //按键2 
//  101 
//  102 /***********  继电器操作 宏定义  ************/
//  103 #define  LINE1_PORT        GPIOB
//  104 #define  LINE2_PORT        GPIOC
//  105 #define  LINE1_PIN         GPIO_Pin_7   
//  106 #define  LINE2_PIN         GPIO_Pin_4
//  107 /* 继电器操作 */
//  108 #define  OPEN_LINE1        GPIO_SetBits  (LINE1_PORT,  LINE1_PIN)
//  109 #define  CLOSE_LINE1       GPIO_ResetBits(LINE1_PORT,  LINE1_PIN)
//  110 #define  TOOGLE_LINE1      GPIO_ToggleBits(LINE1_PORT, LINE1_PIN);
//  111 
//  112 #define  OPEN_LINE2        GPIO_SetBits  (LINE2_PORT,  LINE2_PIN)
//  113 #define  CLOSE_LINE2       GPIO_ResetBits(LINE2_PORT,  LINE2_PIN)
//  114 #define  TOOGLE_LINE2      GPIO_ToggleBits(LINE2_PORT, LINE2_PIN);
//  115   
//  116 
//  117 /* 函数声明区域 */
//  118 INT8U  SpiTxRxByte(INT8U dat);
//  119 void   Reset_CC1100(void); 
//  120 void   halSpiWriteReg(INT8U addr, INT8U value);
//  121 void   halSpiWriteBurstReg(INT8U addr, INT8U *buffer, INT8U count);
//  122 void   halSpiStrobe(INT8U strobe);
//  123 INT8U  halSpiReadReg(INT8U addr);
//  124 void   halSpiReadBurstReg(INT8U addr, INT8U *buffer, INT8U count);
//  125 INT8U  halSpiReadStatus(INT8U addr);
//  126 void   RadioSettings(void);
//  127 INT8U  halRfReceivePacket(INT8U *rxBuffer, INT8U *length);
//  128 void   halRfSendPacket(INT8U *txBuffer, INT8U size);
//  129 
//  130 void   delay(uclong s);
//  131 void   InitAllGpio(void);
//  132 
//  133 void   delay(uclong s);
//  134 void   InitAllGpio(void);
//  135 void   InitRegister(void);
//  136 void   FirstPower(void);
//  137 INT8U  FindIdInFlash(INT8U ID_1,INT8U ID_2,INT8U ID_3,INT8U ID_4);
//  138 void   ReadIdInFlash(void);
//  139 void   WriteIdInFlash(INT8U ID_Part1,INT8U ID_Part2,INT8U ID_Part3,INT8U ID_Part4);
//  140 void   ClearFlash(void);
//  141 void   Led1_Off(void);
//  142 void   Led2_Off(void);
//  143 void   Key1_Function(void);
//  144 void   Key2_Function(void);
//  145 void   Radio_Recive(void);
//  146 void   Auto_Exit_LearnMode_Function(void);
//  147 void   LearnMode_Function(void);
//  148 void   WriteKeyOperationInFlash(INT8U ABIO_Line,INT8U Adress);
//  149 void   SaveInfoInFlash(void);
//  150 INT8U  CalculateRssi(INT8U RSSI_dec);
//  151 void   CommonMode_OperateLine(INT8U Key_num,INT8U AdressOfData);
//  152 void   timer2_delay(uclong  time);
//  153 void   Reply_RequestFlashData(INT8U AdressOfData,INT8U Master_Id_1,INT8U Master_Id_2,INT8U Master_Id_3,INT8U Master_Id_4);
//  154 void   ControlByAirLearn_NewWriteInFlash(INT8U data1,INT8U data2,INT8U data3,INT8U data4,INT8U data5,INT8U Line ,INT8U LearnedIdNum);
//  155 void   UpdateDatasAdressInFlash(INT8U NumOfDeleteData); 
//  156 void   Broadcast_info(void);
//  157 void   length6function(void);
//  158 void   length7function(void);
//  159 void   length10function(void);
//  160 void   length5function(void);
//  161 void   length20function(void);
//  162 void   reply_broadcast(void);
//  163 
//  164 
//  165 /***********  系统参数定义区  **********/
//  166 

        SECTION `.near.bss`:DATA:REORDER:NOROOT(0)
//  167 INT8U  receiveflag = 0;                       //报文接收中断标识
receiveflag:
        DS8 1

        SECTION `.near.bss`:DATA:REORDER:NOROOT(0)
//  168 INT8U  firstpower  = 0;                       //第一次开机标识
firstpower:
        DS8 1
//  169 

        SECTION `.near.bss`:DATA:REORDER:NOROOT(0)
//  170 INT8U  Key1_InterruptPushflag  = 0;           //按键1  中断标识
Key1_InterruptPushflag:
        DS8 1

        SECTION `.near.bss`:DATA:REORDER:NOROOT(0)
//  171 INT8U  Key2_InterruptPushflag  = 0;           //按键2  中断标识
Key2_InterruptPushflag:
        DS8 1

        SECTION `.near.bss`:DATA:REORDER:NOROOT(0)
//  172 INT8U  Key1_Short_Pushed       = 0;           //确认按下KEY1--短按 标识
Key1_Short_Pushed:
        DS8 1

        SECTION `.near.bss`:DATA:REORDER:NOROOT(0)
//  173 INT8U  Key2_Short_Pushed       = 0;           //确认按下KEY2--短按 标识
Key2_Short_Pushed:
        DS8 1

        SECTION `.near.bss`:DATA:REORDER:NOROOT(0)
//  174 uclong key2_time_count         ;              //按键2 计时 
key2_time_count:
        DS8 4

        SECTION `.near.bss`:DATA:REORDER:NOROOT(0)
//  175 uclong key1_time_count         ;              //按键1 计时
key1_time_count:
        DS8 4
//  176 

        SECTION `.near.data`:DATA:REORDER:NOROOT(0)
//  177 INT8U  learn_mode          = OFF;             //判断是否处于学习模式的标识
learn_mode:
        DC8 16
//  178 

        SECTION `.near.bss`:DATA:REORDER:NOROOT(0)
//  179 uclong auto_exit_time      = 0;               //自动退出学习模式 计时
auto_exit_time:
        DS8 4

        SECTION `.near.bss`:DATA:REORDER:NOROOT(0)
//  180 INT8U  led_blink_time      = 0;               //LED闪烁计时
led_blink_time:
        DS8 1

        SECTION `.near.bss`:DATA:REORDER:NOROOT(0)
//  181 uclong WaitForConfirm_time = 0;               //学习模式确认时间计时
WaitForConfirm_time:
        DS8 4

        SECTION `.near.data`:DATA:REORDER:NOROOT(0)
//  182 INT8U  Choose_Line         = 1;               //学习模式下通道选择 --  1：Line1  2：Line2
Choose_Line:
        DC8 1

        SECTION `.near.bss`:DATA:REORDER:NOROOT(0)
//  183 uclong timer2_delay_time   = 0;
timer2_delay_time:
        DS8 4
//  184 

        SECTION `.near.bss`:DATA:REORDER:NOROOT(0)
//  185 INT8U  Public_learned_ID_num = 0;             //已经学习到的ID的数量
Public_learned_ID_num:
        DS8 1

        SECTION `.near.data`:DATA:REORDER:NOROOT(0)
//  186 INT16U IdStartAddress = IDSTARTADDRESS;       //新开关的ID将被记录到Flash中，IdStartAddres为开始存储的起始地址
IdStartAddress:
        DC16 4112
//  187 
//  188 //接收报文函数中使用

        SECTION `.near.bss`:DATA:REORDER:NOROOT(0)
//  189 INT8U Radio_Data[RECEIVE_DATA_LENGTH];                         //存放接收到的数据
Radio_Data:
        DS8 33
//  190 //INT8U receive_data_leng = RECEIVE_DATA_LENGTH;               //定义接收报文长度 最大值  

        SECTION `.near.bss`:DATA:REORDER:NOROOT(0)
//  191 INT8U receive_radio_length     = 0;           //接收报文函数返回的报文长度
receive_radio_length:
        DS8 1

        SECTION `.near.bss`:DATA:REORDER:NOROOT(0)
//  192 INT8U FindIdInFlash_return_num = 0;           //接收FindIdInFlash（）函数的返回值，返回值为 ID_num
FindIdInFlash_return_num:
        DS8 1

        SECTION `.near.bss`:DATA:REORDER:NOROOT(0)
//  193 INT8U IdNum                    = 0;
IdNum:
        DS8 1

        SECTION `.near.data`:DATA:REORDER:NOROOT(0)
//  194 INT8U LearnModeWaitForConfirm  = OFF;         //学习模式中等待确认
LearnModeWaitForConfirm:
        DC8 16
//  195 

        SECTION `.near.data`:DATA:REORDER:NOROOT(0)
//  196 INT8U  Radio_Can_Operated  = 1;               //接收到报文之后已经执行了操作
Radio_Can_Operated:
        DC8 1

        SECTION `.near.bss`:DATA:REORDER:NOROOT(0)
//  197 uclong timer3_Operate_time = 0;               //计算开关送两个信号的处理时间
timer3_Operate_time:
        DS8 4
//  198 

        SECTION `.near.data`:DATA:REORDER:NOROOT(0)
//  199 INT8U  Return_FindInFlash = FINDINFLASH_FAIL;
Return_FindInFlash:
        DC8 119

        SECTION `.near.bss`:DATA:REORDER:NOROOT(0)
//  200 INT8U  clear_num = 0;
clear_num:
        DS8 1

        SECTION `.near.bss`:DATA:REORDER:NOROOT(0)
//  201 INT8U  led_flash = 0;
led_flash:
        DS8 1
//  202 

        SECTION `.near.bss`:DATA:REORDER:NOROOT(0)
//  203 INT8U  check_key1 = 0;
check_key1:
        DS8 1

        SECTION `.near.bss`:DATA:REORDER:NOROOT(0)
//  204 INT8U  check_key2 = 0;
check_key2:
        DS8 1
//  205 

        SECTION `.near.bss`:DATA:REORDER:NOROOT(0)
//  206 INT8U  timer2_need_delay = 0;
timer2_need_delay:
        DS8 1

        SECTION `.near.bss`:DATA:REORDER:NOROOT(0)
//  207 INT8U  rtc_flag = 0;
rtc_flag:
        DS8 1
//  208 
//  209 
//  210 /* 无线报文结构体 */
//  211 struct Radio{          
//  212   INT8U Radio_type;                        //设备类型 -- 0x7(双路执行器)  0x3(远程学习接口)
//  213   INT8U Id_part_1;                          //ID
//  214   INT8U Id_part_2;
//  215   INT8U Id_part_3;
//  216   INT8U Id_part_4;
//  217   INT8U status;                             //报文状态
//  218   INT8U Data;                               //数据
//  219 };

        SECTION `.near.bss`:DATA:REORDER:NOROOT(0)
//  220 struct Radio AllRadio[MAXLEARNNUM];         //初始化全局变量，用于将Flash中数据移植到本地
AllRadio:
        DS8 70
//  221 
//  222 /* 开关按键功能结构体 */     
//  223 struct ABIO{          
//  224   INT8U AI_Line1;                       
//  225   INT8U AO_Line1;                         
//  226   INT8U BI_Line1;
//  227   INT8U BO_Line1;
//  228   INT8U TOOGLE_Line1;
//  229   
//  230   INT8U AI_Line2;                       
//  231   INT8U AO_Line2;                         
//  232   INT8U BI_Line2;
//  233   INT8U BO_Line2;
//  234   INT8U TOOGLE_Line2;  
//  235 };

        SECTION `.near.bss`:DATA:REORDER:NOROOT(0)
//  236 struct ABIO ABIO_Function[MAXLEARNNUM];    
ABIO_Function:
        DS8 100

        SECTION `.far_func.text`:CODE:NOROOT(0)
?Subroutine65:
          CFI Block cfiCond0 Using cfiCommon0
          CFI Function length20function
          CFI Conditional ??CrossCallReturnLabel_126, ??CrossCallReturnLabel_68
          CFI CFA SP+9
          CFI Block cfiCond1 Using cfiCommon0
          CFI (cfiCond1) Function LearnMode_Function
          CFI (cfiCond1) Conditional ??CrossCallReturnLabel_126, ??CrossCallReturnLabel_69
          CFI (cfiCond1) ?b8 Frame(CFA, -3)
          CFI (cfiCond1) CFA SP+10
          CFI Block cfiCond2 Using cfiCommon0
          CFI (cfiCond2) Function length20function
          CFI (cfiCond2) Conditional ??CrossCallReturnLabel_125, ??CrossCallReturnLabel_66
          CFI (cfiCond2) CFA SP+9
          CFI Block cfiCond3 Using cfiCommon0
          CFI (cfiCond3) Function LearnMode_Function
          CFI (cfiCond3) Conditional ??CrossCallReturnLabel_125, ??CrossCallReturnLabel_67
          CFI (cfiCond3) ?b8 Frame(CFA, -3)
          CFI (cfiCond3) CFA SP+10
          CFI Block cfiPicker4 Using cfiCommon1
          CFI (cfiPicker4) NoFunction
          CFI (cfiPicker4) Picker
        CLR       S:?b3
        CLR       S:?b2
        CLR       S:?b1
        CLR       S:?b0
        CLR       A
        JPF       ControlByAirLearn_NewWriteInFlash
          CFI EndBlock cfiCond0
          CFI EndBlock cfiCond1
          CFI EndBlock cfiCond2
          CFI EndBlock cfiCond3
          CFI EndBlock cfiPicker4

        SECTION `.far_func.text`:CODE:NOROOT(0)
?Subroutine35:
          CFI Block cfiCond5 Using cfiCommon0
          CFI Function length7function
          CFI Conditional ??CrossCallReturnLabel_65
          CFI CFA SP+6
          CFI Block cfiCond6 Using cfiCommon0
          CFI (cfiCond6) Function LearnMode_Function
          CFI (cfiCond6) Conditional ??CrossCallReturnLabel_64
          CFI (cfiCond6) ?b8 Frame(CFA, -3)
          CFI (cfiCond6) CFA SP+7
          CFI Block cfiPicker7 Using cfiCommon1
          CFI (cfiPicker7) NoFunction
          CFI (cfiPicker7) Picker
        LD        A, L:Radio_Data + 4
        LD        S:?b2, A
        LD        A, L:Radio_Data + 3
        LD        S:?b1, A
        LD        A, L:Radio_Data + 2
        LD        S:?b0, A
        LD        A, L:Radio_Data + 1
        JPF       FindIdInFlash
          CFI EndBlock cfiCond5
          CFI EndBlock cfiCond6
          CFI EndBlock cfiPicker7

        SECTION `.far_func.text`:CODE:NOROOT(0)
?Subroutine33:
          CFI Block cfiCond8 Using cfiCommon0
          CFI Function CommonMode_OperateLine
          CFI Conditional ??CrossCallReturnLabel_61
          CFI ?b8 Frame(CFA, -4)
          CFI ?b9 Frame(CFA, -3)
          CFI CFA SP+8
          CFI Block cfiCond9 Using cfiCommon0
          CFI (cfiCond9) Function CommonMode_OperateLine
          CFI (cfiCond9) Conditional ??CrossCallReturnLabel_60
          CFI (cfiCond9) ?b8 Frame(CFA, -4)
          CFI (cfiCond9) ?b9 Frame(CFA, -3)
          CFI (cfiCond9) CFA SP+8
          CFI Block cfiCond10 Using cfiCommon0
          CFI (cfiCond10) Function LearnMode_Function
          CFI (cfiCond10) Conditional ??CrossCallReturnLabel_59
          CFI (cfiCond10) ?b8 Frame(CFA, -3)
          CFI (cfiCond10) CFA SP+7
          CFI Block cfiCond11 Using cfiCommon0
          CFI (cfiCond11) Function LearnMode_Function
          CFI (cfiCond11) Conditional ??CrossCallReturnLabel_58
          CFI (cfiCond11) ?b8 Frame(CFA, -3)
          CFI (cfiCond11) CFA SP+7
          CFI Block cfiPicker12 Using cfiCommon1
          CFI (cfiPicker12) NoFunction
          CFI (cfiPicker12) Picker
        CALLF     ?Subroutine62
??CrossCallReturnLabel_297:
        JPF       Led1_Off
          CFI EndBlock cfiCond8
          CFI EndBlock cfiCond9
          CFI EndBlock cfiCond10
          CFI EndBlock cfiCond11
          CFI EndBlock cfiPicker12
//  237 
//  238 
//  239 void delay(uclong  s)
//  240 {
//  241     uclong i;
//  242     for(i=0; i<s; i++);
//  243     for(i=0; i<s; i++);
//  244 }
//  245 
//  246 
//  247 /**
//  248 @function：Timer2 计时    
//  249 总计时为 1ms * time 
//  250 **/
//  251 void timer2_delay(uclong  time)  
//  252 {
//  253     uclong error_out = 0;
//  254     timer2_need_delay = 1;
//  255     timer2_delay_time  = 0;    //计数器清空
//  256     TIM2_Cmd(ENABLE);
//  257     do
//  258     {
//  259         IWDG_ReloadCounter();    //喂狗
//  260         error_out++;
//  261         if(error_out > 60000)
//  262         { break;}
//  263     }while(timer2_delay_time  < time);
//  264       
//  265     TIM2_Cmd(DISABLE);
//  266     
//  267     timer2_need_delay = 0;
//  268     timer2_delay_time  = 0;
//  269 }
//  270 
//  271 /**
//  272 @function：关闭LED1 
//  273 **/
//  274 void  Led1_Off(void)
//  275 {
//  276     GPIO_ResetBits(LED1_GREEN_PORT,LED1_GREEN_PIN);
//  277     GPIO_ResetBits(LED1_BLUE_PORT,LED1_BLUE_PIN); 
//  278     GPIO_ResetBits(LED1_RED_PORT ,LED1_RED_PIN);
//  279 }
//  280 /**
//  281 @function：关闭LED2 
//  282 **/
//  283 void  Led2_Off(void)
//  284 {
//  285     GPIO_ResetBits(LED2_GREEN_PORT,LED2_GREEN_PIN);
//  286     GPIO_ResetBits(LED2_BLUE_PORT,LED2_BLUE_PIN); 
//  287     GPIO_ResetBits(LED2_RED_PORT ,LED2_RED_PIN);
//  288 }
//  289 
//  290 /**
//  291 @function：计算RSSI值 
//  292 **/
//  293 INT8U CalculateRssi(INT8U RSSI_dec)
//  294 {
//  295 return 0;
//  296 }
//  297 
//  298 /**
//  299 @function：初始化IO口  
//  300 **/
//  301 void InitAllGpio(void)  
//  302 { 
//  303     /*SPI初始化*/
//  304     GPIO_Init(GPIOB,     GPIO_Pin_4,GPIO_Mode_In_PU_No_IT);           // MISO_PIN        
//  305     GPIO_Init(MOSI_PORT, MOSI_PIN,GPIO_Mode_Out_PP_High_Fast);        // MOSI_PIN
//  306     GPIO_Init(SCK_PORT,  SCK_PIN,GPIO_Mode_Out_PP_High_Fast);         // SCK_PIN
//  307     GPIO_Init(CSN_PORT,  CSN_PIN,GPIO_Mode_Out_PP_High_Fast);         // CSN_PIN
//  308     /*GDO0初始化*/
//  309     GPIO_Init(GPIOB, GPIO_Pin_3,GPIO_Mode_In_FL_IT);
//  310     EXTI_SetPinSensitivity(EXTI_Pin_3, EXTI_Trigger_Falling); 
//  311     /*按键初始化*/
//  312     GPIO_Init(KEY1_PORT, KEY1_PIN,GPIO_Mode_In_FL_IT);
//  313     GPIO_Init(KEY2_PORT, KEY2_PIN,GPIO_Mode_In_FL_IT);                                    
//  314     /*按键中断*/
//  315     EXTI_SetPinSensitivity(EXTI_Pin_0, EXTI_Trigger_Falling);
//  316     EXTI_SetPinSensitivity(EXTI_Pin_3, EXTI_Trigger_Falling);       
//  317     /*三色LED的IO初始化*/
//  318     //LED1
//  319     GPIO_Init(LED1_GREEN_PORT, LED1_GREEN_PIN,GPIO_Mode_Out_PP_Low_Slow);      
//  320     GPIO_ResetBits(LED1_GREEN_PORT, LED1_GREEN_PIN);
//  321     GPIO_Init(LED1_RED_PORT, LED1_RED_PIN,GPIO_Mode_Out_PP_Low_Slow);
//  322     GPIO_ResetBits(LED1_RED_PORT, LED1_RED_PIN);
//  323     GPIO_Init(LED1_BLUE_PORT, LED1_BLUE_PIN,GPIO_Mode_Out_PP_Low_Slow); 
//  324     GPIO_ResetBits(LED1_BLUE_PORT, LED1_BLUE_PIN);
//  325     //LED2
//  326     GPIO_Init(LED2_GREEN_PORT, LED2_GREEN_PIN,GPIO_Mode_Out_PP_High_Fast);      
//  327     GPIO_ResetBits(LED2_GREEN_PORT, LED2_GREEN_PIN);
//  328     GPIO_Init(LED2_RED_PORT, LED2_RED_PIN,GPIO_Mode_Out_PP_High_Fast);
//  329     GPIO_ResetBits(LED2_RED_PORT, LED2_RED_PIN);
//  330     GPIO_Init(LED2_BLUE_PORT, LED2_BLUE_PIN,GPIO_Mode_Out_PP_High_Fast);
//  331     GPIO_ResetBits(LED2_BLUE_PORT, LED2_BLUE_PIN);
//  332     /*继电器IO初始化*/
//  333     GPIO_Init(LINE1_PORT,LINE1_PIN,GPIO_Mode_Out_PP_High_Slow);
//  334     GPIO_ResetBits(LINE1_PORT,LINE1_PIN);  
//  335     GPIO_Init(LINE2_PORT,LINE2_PIN,GPIO_Mode_Out_PP_High_Slow);
//  336     GPIO_ResetBits(LINE2_PORT,LINE2_PIN);   
//  337    
//  338     /*设置未用到的IO*/
//  339     GPIO_Init(GPIOA,GPIO_Pin_1,GPIO_Mode_Out_PP_High_Fast);
//  340     GPIO_SetBits(GPIOA,GPIO_Pin_1);
//  341     GPIO_Init(GPIOC,GPIO_Pin_0,GPIO_Mode_Out_PP_High_Fast);
//  342     GPIO_SetBits(GPIOC,GPIO_Pin_0);
//  343     GPIO_Init(GPIOC,GPIO_Pin_1,GPIO_Mode_Out_PP_High_Fast);
//  344     GPIO_SetBits(GPIOC,GPIO_Pin_1);
//  345     
//  346   //  GPIO_Init(GPIOC, GPIO_Pin_6,GPIO_Mode_In_FL_IT);
//  347   //  EXTI_SetPinSensitivity(EXTI_Pin_6, EXTI_Trigger_Falling);
//  348     
//  349 }
//  350 
//  351 /**
//  352 @function：配置CLK 及Timer4、2、3定时器 & 看门狗 & SPI
//  353 **/
//  354 void InitRegister(void)
//  355 {  
//  356      /** 配置内部时钟 **/
//  357      CLK_SYSCLKSourceConfig(CLK_SYSCLKSource_HSI);                //配置内部时钟
//  358      CLK_SYSCLKDivConfig(CLK_SYSCLKDiv_4);                        //时钟预分频
//  359      /** 配置Timer4 **/ 
//  360      CLK_PeripheralClockConfig(CLK_Peripheral_TIM4, ENABLE);
//  361      TIM4_TimeBaseInit(TIM4_Prescaler_512, 50);                 //6.4ms中断      
//  362      TIM4_ClearFlag(TIM4_FLAG_Update);
//  363      TIM4_ITConfig(TIM4_IT_Update, ENABLE);
//  364      /** 配置Timer2 **/ 
//  365      CLK_PeripheralClockConfig(CLK_Peripheral_TIM2, ENABLE);
//  366      TIM2_TimeBaseInit(TIM2_Prescaler_4,TIM2_CounterMode_Up, 1000);   //1ms
//  367      TIM2_ClearFlag(TIM2_FLAG_Update);
//  368      TIM2_ITConfig(TIM2_IT_Update, ENABLE);            
//  369      TIM2_Cmd(ENABLE);     
//  370      /** 配置Timer3 **/ 
//  371      CLK_PeripheralClockConfig(CLK_Peripheral_TIM3, ENABLE);
//  372      TIM3_TimeBaseInit(TIM3_Prescaler_32,TIM3_CounterMode_Up, 200);  //1.6ms  参数300
//  373      TIM3_ClearFlag(TIM3_FLAG_Update);
//  374      TIM3_ITConfig(TIM3_IT_Update, ENABLE);       
//  375      /** 配置看门狗 **/   
//  376      IWDG_WriteAccessCmd(IWDG_WriteAccess_Enable);    //16.384ms
//  377      IWDG_SetPrescaler(IWDG_Prescaler_256);
//  378      IWDG_SetReload(0xFE);
//  379      IWDG_ReloadCounter();
//  380      /** 配置SPI通信 **/ 
//  381      CLK_PeripheralClockConfig(CLK_Peripheral_SPI1, ENABLE);
//  382      SPI_DeInit( SPI1);
//  383      SPI_Init( SPI1,SPI_FirstBit_MSB, SPI_BaudRatePrescaler_2,
//  384                SPI_Mode_Master, SPI_CPOL_Low, SPI_CPHA_1Edge,
//  385                SPI_Direction_2Lines_FullDuplex, SPI_NSS_Soft,(uint8_t)0x00 );
//  386      SPI_Cmd( SPI1,ENABLE );
//  387      /**  RTC **/
//  388      CLK_RTCClockConfig(CLK_RTCCLKSource_HSI, CLK_RTCCLKDiv_16);    //3.2s
//  389      delay(10000);
//  390      CLK_PeripheralClockConfig(CLK_Peripheral_RTC, ENABLE);
//  391      RTC_WakeUpClockConfig(RTC_WakeUpClock_RTCCLK_Div16);
//  392      RTC_ITConfig(RTC_IT_WUT, ENABLE);
//  393      RTC_SetWakeUpCounter(50000);
//  394      RTC_WakeUpCmd(ENABLE);
//  395 }
//  396 
//  397 /**
//  398 @function：配置CC1100的寄存器 
//  399 **/
//  400 void RadioSettings(void) 
//  401 {  
//  402     INT8U  PaTabel[8] = {0xC5 ,0xC5 ,0xC5 ,0xC5 ,0xC5 ,0xC5 ,0xC5 ,0xC5};   //10dBm
//  403     halSpiWriteReg(0x08,0x05);          //PKTCTRL0   
//  404     halSpiWriteReg(0x0B,0x0C);          //FSCTRL1   
//  405     halSpiWriteReg(0x0D,0x10);          //FREQ2
//  406     halSpiWriteReg(0x0E,0xB1);          //FREQ1
//  407     halSpiWriteReg(0x0F,0x3B);          //FREQ0
//  408     halSpiWriteReg(0x10,0x2D);          //MDMCFG4   
//  409     halSpiWriteReg(0x11,0x3B);          //MDMCFG3
//  410     halSpiWriteReg(0x12,0x13);          //MDMCFG2    0x13 GFSK
//  411     halSpiWriteReg(0x15,0x62);          //DEVIATN      
//  412     halSpiWriteReg(0x17,0x3F);          //MCSM1 RX之后保持RX状态
//  413       
//  414     halSpiWriteReg(0x18,0x18);          //MCSM0 18   
//  415     halSpiWriteReg(0x19,0x1D);          //FOCCFG
//  416     halSpiWriteReg(0x1A,0x1C);          //BSCFG
//  417     halSpiWriteReg(0x1B,0xC7);          //AGCCTRL2
//  418     halSpiWriteReg(0x1C,0x00);          //AGCCTRL1
//  419     halSpiWriteReg(0x1D,0xB0);          //AGCCTRL0
//  420     halSpiWriteReg(0x21,0xB6);          //FREND1 
//  421     halSpiWriteReg(0x23,0xEA);          //FSCAL3
//  422     halSpiWriteReg(0x24,0x2A);          //FSCAL2    
//  423     halSpiWriteReg(0x25,0x00);          //FSCAL1
//  424     halSpiWriteReg(0x26,0x1F);          //FSCAL0     
//  425     
//  426     halSpiWriteReg(0x02,0x06);          //IOCFG0   
//  427    // halSpiWriteReg(0x02,0x0E);          //IOCFG0 
//  428     
//  429     halSpiWriteBurstReg(0x3E,PaTabel,8);//配置cc1101功率 
//  430 }
//  431 
//  432 INT8U SpiTxRxByte(INT8U dat)
//  433 {
//  434     INT8U i,temp;
//  435     temp = 0;	
//  436     SCK_0 ;
//  437     for(i=0; i<8; i++)
//  438     {
//  439         if(dat & 0x80)  
//  440         {MOSI_1;}
//  441         else 
//  442         {MOSI_0;}
//  443         dat <<= 1;
//  444         SCK_1;
//  445         temp <<= 1;
//  446         if(MISO_INPUT)temp++;   
//  447         SCK_0; 
//  448     }
//  449     IWDG->KR = IWDG_KEY_REFRESH;    //喂狗
//  450     return temp;
//  451 }
//  452 
//  453 void Reset_CC1100(void) 
//  454 {
//  455     CSN_0; 
//  456     SpiTxRxByte(0x30);    
//  457     CSN_1; 	  		
//  458 }
//  459 
//  460 void halSpiWriteReg(INT8U addr, INT8U value) 
//  461 {   
//  462     CSN_0;
//  463     while(MISO_INPUT);
//  464     SpiTxRxByte(addr);		
//  465     SpiTxRxByte(value);		
//  466     CSN_1;
//  467 }
//  468 
//  469 void halSpiWriteBurstReg(INT8U addr, INT8U *buffer, INT8U count) 
//  470 {
//  471     INT8U i, temp;
//  472     temp = addr | 0x40;
//  473     CSN_0;
//  474     while(MISO_INPUT);	
//  475     SpiTxRxByte(temp);	
//  476     for (i = 0; i < count; i++)
//  477     {
//  478         SpiTxRxByte(buffer[i]);
//  479     }
//  480     CSN_1;
//  481 }
//  482 
//  483 void halSpiStrobe(INT8U strobe) 
//  484 {
//  485     CSN_0;
//  486     while (MISO_INPUT);
//  487     SpiTxRxByte(strobe);		
//  488     CSN_1;
//  489 }
//  490 
//  491 INT8U halSpiReadReg(INT8U addr) 
//  492 {
//  493     INT8U temp, value;
//  494     temp = addr|0x80;
//  495     CSN_0;
//  496     while (MISO_INPUT);
//  497     SpiTxRxByte(temp);
//  498     value = SpiTxRxByte(0);
//  499     CSN_1;
//  500     return value;
//  501 }
//  502 
//  503 void halSpiReadBurstReg(INT8U addr, INT8U *buffer, INT8U count) 
//  504 {
//  505     INT8U i,temp;
//  506     temp = addr | 0xC0;		
//  507     CSN_0;
//  508     while (MISO_INPUT);
//  509     SpiTxRxByte(temp);   
//  510     for (i = 0; i < count; i++) 
//  511     {
//  512         buffer[i] = SpiTxRxByte(0);
//  513     }
//  514     CSN_1;
//  515 }
//  516 
//  517 INT8U halSpiReadStatus(INT8U addr) 
//  518 {
//  519     INT8U value,temp;
//  520     temp = addr | 0xC0;		
//  521     CSN_0;
//  522     while (MISO_INPUT);
//  523     SpiTxRxByte(temp);
//  524     value = SpiTxRxByte(0);
//  525     CSN_1;
//  526     return value;
//  527 }
//  528 /************  接收数据包 ******************/
//  529 INT8U halRfReceivePacket(INT8U *rxBuffer, INT8U *length) 
//  530 {
//  531     INT8U status[2];
//  532     INT8U packetLength;    
//  533     halSpiStrobe(0x34);                    //进入接收状态
//  534     delay(33);                            
//  535     if ((halSpiReadStatus(0x3B) & 0x7F) )  
//  536     {         
//  537         packetLength = halSpiReadReg(0x3F);
//  538         if (packetLength <= *length+1)       
//  539         {
//  540             halSpiReadBurstReg(0x3F, rxBuffer, packetLength);  //+1 是为了获取RSSI值
//  541             *length = packetLength;				
//  542             halSpiReadBurstReg(0x3F, status, 2);  //读出CRC校验位	
//  543             halSpiStrobe(0x3A);	                  //清洗接收缓冲区           
//  544             if(status[1] && 0x80)                 //如果检验成功，则返回报文长度
//  545             {
//  546                 halSpiStrobe(0x36);halSpiStrobe(0x34);timer2_delay(1);             //矫正CC1101时钟
//  547                 return(packetLength);
//  548             }
//  549             else 
//  550             {
//  551                 halSpiStrobe(0x36);halSpiStrobe(0x34);timer2_delay(1);             //矫正CC1101时钟
//  552                 return 0;
//  553             }               
//  554         }
//  555         else 
//  556         {         
//  557             *length = packetLength;
//  558             halSpiStrobe(0x3A);
//  559             halSpiStrobe(0x36);halSpiStrobe(0x34);timer2_delay(1);             //矫正CC1101时钟 
//  560             return 0;
//  561         }
//  562     }
//  563     else
//  564     { halSpiStrobe(0x3A);halSpiStrobe(0x36);halSpiStrobe(0x34);timer2_delay(1); } //清洗接收缓冲区
//  565     return 0;        
//  566 }
//  567 /************  CC1100发送一组数据 ******************/
//  568 void halRfSendPacket(INT8U *txBuffer, INT8U size) 
//  569 {
//  570     halSpiWriteReg(0x3F, size);   
//  571     halSpiWriteBurstReg(0x3F, txBuffer, size);	//写入发送数据    
//  572     halSpiStrobe(0x35);                         //进入发送模式
//  573     timer2_delay(5);  //5ms
//  574     halSpiStrobe(0x3B);                        //清空发送区数据
//  575 }
//  576 
//  577 
//  578 /**
//  579 @function：按键Key1处理函数 -- 选择 & 学习 
//  580 **/

        SECTION `.far_func.text`:CODE:NOROOT(0)
?Subroutine32:
          CFI Block cfiCond13 Using cfiCommon0
          CFI Function main
          CFI Conditional ??CrossCallReturnLabel_57
          CFI CFA SP+6
          CFI Block cfiCond14 Using cfiCommon0
          CFI (cfiCond14) Function SaveInfoInFlash
          CFI (cfiCond14) Conditional ??CrossCallReturnLabel_56
          CFI (cfiCond14) ?b8 Frame(CFA, -6)
          CFI (cfiCond14) ?b9 Frame(CFA, -5)
          CFI (cfiCond14) ?b10 Frame(CFA, -4)
          CFI (cfiCond14) ?b11 Frame(CFA, -3)
          CFI (cfiCond14) CFA SP+10
          CFI Block cfiCond15 Using cfiCommon0
          CFI (cfiCond15) Function LearnMode_Function
          CFI (cfiCond15) Conditional ??CrossCallReturnLabel_55
          CFI (cfiCond15) ?b8 Frame(CFA, -3)
          CFI (cfiCond15) CFA SP+7
          CFI Block cfiCond16 Using cfiCommon0
          CFI (cfiCond16) Function LearnMode_Function
          CFI (cfiCond16) Conditional ??CrossCallReturnLabel_54
          CFI (cfiCond16) ?b8 Frame(CFA, -3)
          CFI (cfiCond16) CFA SP+7
          CFI Block cfiCond17 Using cfiCommon0
          CFI (cfiCond17) Function Auto_Exit_LearnMode_Function
          CFI (cfiCond17) Conditional ??CrossCallReturnLabel_53
          CFI (cfiCond17) CFA SP+6
          CFI Block cfiCond18 Using cfiCommon0
          CFI (cfiCond18) Function Key1_Function
          CFI (cfiCond18) Conditional ??CrossCallReturnLabel_52
          CFI (cfiCond18) CFA SP+6
          CFI Block cfiPicker19 Using cfiCommon1
          CFI (cfiPicker19) NoFunction
          CFI (cfiPicker19) Picker
//  581 void  Key1_Function(void)
//  582 {      
//  583     if(learn_mode == ON)
//  584     {
//  585         if(key1_time_count > 5)
//  586         {
//  587           Key1_InterruptPushflag  = 0;
//  588           Key1_Short_Pushed = 1;         
//  589         }
//  590     }
//  591     if(KEY1_INPUT)
//  592     {
//  593         Key1_InterruptPushflag  = 0;
//  594     }
//  595     
//  596     /** 按键1-长按进入学习模式 **/
//  597     if((key1_time_count > 400) && (!Key2_InterruptPushflag) && (learn_mode == OFF) )
//  598     {        
//  599         //定时器在按键1中断中开启，至此未关闭 
//  600         Key1_InterruptPushflag = 0;
//  601         Led1_Off(); Led2_Off(); LED1_GREEN; 
//  602         led_blink_time    = 0;
//  603         Key1_Short_Pushed = 0;
//  604         Key2_Short_Pushed = 0;
//  605         learn_mode          = ON;           //置学习模式标志为1                                  
//  606         WaitForConfirm_time = 0; 
//  607     }                 
//  608 }
//  609 
//  610 /**
//  611 @function：按键Key2处理函数 --  学习确认  
//  612 **/
//  613 void  Key2_Function(void)
//  614 {
//  615     if(KEY2_INPUT)
//  616     {
//  617         Key2_InterruptPushflag = 0;
//  618         if( key2_time_count < 180  )      
//  619         {                                                      
//  620             Key2_Short_Pushed = 1;       
//  621             if(learn_mode == OFF)
//  622             {
//  623                 Broadcast_info();
//  624                 LED1_BLUE;LED2_BLUE;                
//  625                 timer2_delay(100); 
//  626                 Led1_Off(); Led2_Off();             
//  627             }
//  628         }            
//  629     }
//  630     if(learn_mode == OFF)
//  631     {       
//  632         if((key2_time_count > 400) && (!Key1_InterruptPushflag) && (learn_mode == OFF) )
//  633         { 
//  634             Key2_InterruptPushflag = 0;
//  635             key2_time_count = 0;
//  636             ClearFlash();             
//  637             TIM4_Cmd(DISABLE);
//  638             auto_exit_time  = 0;           //自动退出计时清零     
//  639             WaitForConfirm_time = 0;
//  640                               
//  641             LED2_RED;LED1_RED;
//  642             timer2_delay(1280);            
//  643             while(led_flash < 5)
//  644             {
//  645                 LED2_RED;LED1_RED;
//  646                 timer2_delay(200);             //203.2ms
//  647                 Led1_Off();Led2_Off();
//  648                 timer2_delay(200);
//  649                 led_flash++;
//  650             }
//  651             led_flash = 0;      
//  652         }           
//  653     }   
//  654 }
//  655      
//  656 
//  657 /**
//  658 @function：无操作 定时 退出 学习模式 
//  659 **/
//  660 void Auto_Exit_LearnMode_Function(void)
//  661 {
//  662     if(learn_mode == ON)                   
//  663     {                         
//  664         if(auto_exit_time > 3200)                  //15s   自动退出学习模式
//  665         {    
//  666             TIM4_Cmd(DISABLE);                     //关闭定时器
//  667             led_blink_time  = 0;
//  668             auto_exit_time  = 0;   
//  669             Choose_Line     = 1;                //回路选择重新置1
//  670             learn_mode      = OFF;              //退出学习模式，进入工作模式           
//  671             Led1_Off();                         //关闭两个LED灯   
        CALLF     Led1_Off
//  672             Led2_Off();
        JPF       Led2_Off
          CFI EndBlock cfiCond13
          CFI EndBlock cfiCond14
          CFI EndBlock cfiCond15
          CFI EndBlock cfiCond16
          CFI EndBlock cfiCond17
          CFI EndBlock cfiCond18
          CFI EndBlock cfiPicker19

        SECTION `.far_func.text`:CODE:NOROOT(0)
?Subroutine17:
          CFI Block cfiCond20 Using cfiCommon0
          CFI Function LearnMode_Function
          CFI Conditional ??CrossCallReturnLabel_27
          CFI ?b8 Frame(CFA, -3)
          CFI CFA SP+7
          CFI Block cfiCond21 Using cfiCommon0
          CFI (cfiCond21) Function LearnMode_Function
          CFI (cfiCond21) Conditional ??CrossCallReturnLabel_28
          CFI (cfiCond21) ?b8 Frame(CFA, -3)
          CFI (cfiCond21) CFA SP+7
          CFI Block cfiPicker22 Using cfiCommon1
          CFI (cfiPicker22) NoFunction
          CFI (cfiPicker22) Picker
        CALLF     ?Subroutine71
??CrossCallReturnLabel_131:
        RETF
          CFI EndBlock cfiCond20
          CFI EndBlock cfiCond21
          CFI EndBlock cfiPicker22

        SECTION `.far_func.text`:CODE:NOROOT(0)
?Subroutine14:
          CFI Block cfiCond23 Using cfiCommon0
          CFI Function CommonMode_OperateLine
          CFI Conditional ??CrossCallReturnLabel_21
          CFI ?b8 Frame(CFA, -4)
          CFI ?b9 Frame(CFA, -3)
          CFI CFA SP+8
          CFI Block cfiCond24 Using cfiCommon0
          CFI (cfiCond24) Function LearnMode_Function
          CFI (cfiCond24) Conditional ??CrossCallReturnLabel_20
          CFI (cfiCond24) ?b8 Frame(CFA, -3)
          CFI (cfiCond24) CFA SP+7
          CFI Block cfiCond25 Using cfiCommon0
          CFI (cfiCond25) Function LearnMode_Function
          CFI (cfiCond25) Conditional ??CrossCallReturnLabel_19
          CFI (cfiCond25) ?b8 Frame(CFA, -3)
          CFI (cfiCond25) CFA SP+7
          CFI Block cfiPicker26 Using cfiCommon1
          CFI (cfiPicker26) NoFunction
          CFI (cfiPicker26) Picker
        LD        A, #0x10
        CALLF     ?Subroutine68
??CrossCallReturnLabel_303:
        JPF       Led2_Off
          CFI EndBlock cfiCond23
          CFI EndBlock cfiCond24
          CFI EndBlock cfiCond25
          CFI EndBlock cfiPicker26

        SECTION `.far_func.text`:CODE:NOROOT(0)
          CFI Block cfiBlock27 Using cfiCommon0
          CFI Function Broadcast_info
        CODE
Broadcast_info:
        SUB       SP, #0x6
          CFI CFA SP+9
        LDW       Y, #?_1
        LDW       X, SP
        INCW      X
        PUSHW     X
          CFI CFA SP+11
        LD        A, #0x6
        CALLF     L:?move1616_v_x_y_a
        POPW      X
          CFI CFA SP+9
        LD        A, #0x6
        LDW       X, SP
        INCW      X
        CALLF     halRfSendPacket
        ADD       SP, #0x6
          CFI CFA SP+3
        RETF
          CFI EndBlock cfiBlock27

        SECTION `.far_func.text`:CODE:NOROOT(0)
          CFI Block cfiBlock28 Using cfiCommon0
          CFI Function ClearFlash
        CODE
ClearFlash:
        CALLF     L:?push_w4
          CFI ?b9 Frame(CFA, -3)
          CFI ?b8 Frame(CFA, -4)
          CFI CFA SP+5
        PUSH      S:?b10
          CFI ?b10 Frame(CFA, -5)
          CFI CFA SP+6
        LDW       X, #0x1000
        LDW       S:?w4, X
        CALLF     ?Subroutine53
??CrossCallReturnLabel_107:
        CALLF     ??Subroutine102_0
??CrossCallReturnLabel_234:
        CLR       A
        LDW       X, #0x1002
        CALLF     ?Subroutine23
??CrossCallReturnLabel_36:
        LDW       X, #0x1005
        CALLF     ?Subroutine24
??CrossCallReturnLabel_38:
        LDW       X, #0x1006
        CALLF     ?Subroutine24
??CrossCallReturnLabel_39:
        CALLF     ??Subroutine99_0
??CrossCallReturnLabel_222:
        MOV       S:?b10, #0xa1
??ClearFlash_0:
        CLR       A
        CALLF     L:?mov_w1_w4
        CALLF     ??Subroutine101_0
??CrossCallReturnLabel_227:
        LDW       X, S:?w4
        INCW      X
        LDW       S:?w4, X
        LD        A, S:?b10
        DEC       A
        LD        S:?b10, A
        JRNE      L:??ClearFlash_0
        CLR       S:?b2
??ClearFlash_1:
        CLRW      Y
        EXG       A, YL
        LD        A, S:?b2
        CALLF     ?Subroutine30
??CrossCallReturnLabel_170:
        CLR       A
        CALLF     ?Subroutine47
??CrossCallReturnLabel_164:
        CALLF     ?Subroutine48
??CrossCallReturnLabel_159:
        LD        (Y), A
        ADDW      X, #0x4
        LD        (X), A
        LD        A, S:?b2
        INC       A
        LD        S:?b2, A
        CP        A, #0xa
        JRC       L:??ClearFlash_1
        CALLF     ?Subroutine52
??CrossCallReturnLabel_102:
        POP       S:?b10
          CFI ?b10 SameValue
          CFI CFA SP+5
        JPF       L:?epilogue_w4
          CFI EndBlock cfiBlock28
//  673         }
//  674         if(LearnModeWaitForConfirm == ON)
//  675         {
//  676             if(WaitForConfirm_time > 1200)      //自动退学学习确认等待
//  677             {
//  678                  WaitForConfirm_time     = 0;
//  679                  LearnModeWaitForConfirm = OFF;                 
//  680             }        
//  681         }
//  682     } 
//  683 }
//  684 
//  685 
//  686 /**
//  687 @function：第一次开机 Flash相关初始化
//  688 **/
//  689 void FirstPower(void)
//  690 {
//  691     INT8U firstpowernum;
//  692     FLASH_SetProgrammingTime(FLASH_ProgramTime_Standard);      //选定Flash模式
//  693     FLASH_Unlock(FLASH_MemType_Data);                          //解锁Flash
//  694     timer2_delay(1);    
//  695     firstpowernum = FLASH_ReadByte(IFFIRSTPOWERNUMADRESS);
//  696     if(firstpowernum == 0x25)  //不是第一次开机
//  697     {
//  698         firstpower = 0;                                             
//  699     }
//  700     else       
//  701     {   
//  702         //TODO 清空Flash数据
//  703         //ClearFlash();
//  704         firstpower = 1;       //第一次上电开机
//  705         FLASH_ProgramByte(IFFIRSTPOWERNUMADRESS,0x25); 
//  706     }
//  707     FLASH_Lock(FLASH_MemType_Data);                            //锁定Flash  
//  708 }
//  709 
//  710 /**
//  711 @function：初始化读取Flash中ID
//  712 **/
//  713 void ReadIdInFlash(void)
//  714 {
//  715     INT8U i;
//  716     INT16U flash_start = IDSTARTADDRESS;                         //Flash初始位置  
//  717     FLASH_Unlock(FLASH_MemType_Data);                            //解锁Flash 
//  718     timer2_delay(1);                                             //等待解锁Flash完成      
//  719     if(firstpower == 1)                                          //第一次开机
//  720     {
//  721       FLASH_ProgramByte(NEWIDADDRESSINFLASH_PART_1,0x10);        //将0x1010写入该位置
//  722       FLASH_ProgramByte(NEWIDADDRESSINFLASH_PART_2,0x10);     
//  723     } 
//  724     else if(firstpower == 0)                                     //非第一次开机
//  725     {
//  726       Public_learned_ID_num = FLASH_ReadByte(IDCOUNTADD);
//  727       IdStartAddress = (FLASH_ReadByte(NEWIDADDRESSINFLASH_PART_1)<<8)+(FLASH_ReadByte(NEWIDADDRESSINFLASH_PART_2));
//  728       if(IdStartAddress == 0x0)
//  729       {
//  730           IdStartAddress = IDSTARTADDRESS;
//  731       }
//  732     } 
//  733     for(i = 0;i < MAXLEARNNUM;i++)  //注意数组溢出                            
//  734     {
//  735       AllRadio[i].Id_part_1 = FLASH_ReadByte(flash_start);        //将Flash中ID读取到本地内存中
//  736       flash_start++;
//  737       AllRadio[i].Id_part_2 = FLASH_ReadByte(flash_start);
//  738       flash_start++;
//  739       AllRadio[i].Id_part_3 = FLASH_ReadByte(flash_start);
//  740       flash_start++;
//  741       AllRadio[i].Id_part_4 = FLASH_ReadByte(flash_start);
//  742       flash_start++;
//  743       
//  744       ABIO_Function[i].AI_Line1 = FLASH_ReadByte(flash_start);    //将Flash中开关对应的动作读取到本地内存中
//  745       flash_start++;
//  746       ABIO_Function[i].AO_Line1 = FLASH_ReadByte(flash_start);
//  747       flash_start++;
//  748       ABIO_Function[i].BI_Line1 = FLASH_ReadByte(flash_start);
//  749       flash_start++;     
//  750       ABIO_Function[i].BO_Line1 = FLASH_ReadByte(flash_start);
//  751       flash_start++; 
//  752       ABIO_Function[i].TOOGLE_Line1 = FLASH_ReadByte(flash_start);
//  753       flash_start++;       
//  754            
//  755       ABIO_Function[i].AI_Line2 = FLASH_ReadByte(flash_start);    
//  756       flash_start++;
//  757       ABIO_Function[i].AO_Line2 = FLASH_ReadByte(flash_start);
//  758       flash_start++;
//  759       ABIO_Function[i].BI_Line2 = FLASH_ReadByte(flash_start);
//  760       flash_start++;     
//  761       ABIO_Function[i].BO_Line2 = FLASH_ReadByte(flash_start);
//  762       flash_start++; 
//  763       ABIO_Function[i].TOOGLE_Line2 = FLASH_ReadByte(flash_start);
//  764       flash_start++;       
//  765       
//  766       flash_start+=0x2;
//  767     }   
//  768     FLASH_Lock(FLASH_MemType_Data);   //锁定Flash
//  769 }
//  770 
//  771 /** 
//  772 @function： 在本地参数中查找ID 
//  773 @parameter: 报文ID
//  774 @return:    该ID在Flash中的位置（从0开始计数），若无，则返回FINDINFLASH_FAIL 
//  775 **/
//  776 INT8U FindIdInFlash(INT8U ID_Part1,INT8U ID_Part2,INT8U ID_Part3,INT8U ID_Part4)
//  777 {
//  778     INT8U i;  
//  779     for(i = 0 ; i < MAXLEARNNUM ; i++)       //TODO 可优化，根据学习数量来进行查找    
//  780     {           
//  781         if(AllRadio[i].Id_part_1==ID_Part1&&(AllRadio[i].Id_part_2==ID_Part2)&&(AllRadio[i].Id_part_3==ID_Part3)&&(AllRadio[i].Id_part_4==ID_Part4))
//  782         {          
//  783              return(i);
//  784         }        
//  785     }
//  786     return(FINDINFLASH_FAIL);
//  787 }
//  788 
//  789 /**
//  790 @function： 将ID写入Flash中 
//  791 @parameter：需写入Flash的ID    按照空闲位置顺序写入Flash
//  792 **/

        SECTION `.far_func.text`:CODE:NOROOT(0)
?Subroutine48:
          CFI Block cfiCond29 Using cfiCommon0
          CFI Function ClearFlash
          CFI Conditional ??CrossCallReturnLabel_159
          CFI ?b10 Frame(CFA, -5)
          CFI ?b8 Frame(CFA, -4)
          CFI ?b9 Frame(CFA, -3)
          CFI CFA SP+9
          CFI Block cfiCond30 Using cfiCommon0
          CFI (cfiCond30) Function WriteIdInFlash
          CFI (cfiCond30) Conditional ??CrossCallReturnLabel_160
          CFI (cfiCond30) ?b8 Frame(CFA, -6)
          CFI (cfiCond30) ?b9 Frame(CFA, -5)
          CFI (cfiCond30) ?b10 Frame(CFA, -4)
          CFI (cfiCond30) ?b11 Frame(CFA, -3)
          CFI (cfiCond30) CFA SP+10
          CFI Block cfiPicker31 Using cfiCommon1
          CFI (cfiPicker31) NoFunction
          CFI (cfiPicker31) Picker
//  793 void WriteIdInFlash(INT8U ID_Part1,INT8U ID_Part2,INT8U ID_Part3,INT8U ID_Part4)
//  794 {
//  795     FLASH_Unlock(FLASH_MemType_Data);                                   //解锁Flash
//  796     timer2_delay(1);  
//  797     
//  798     AllRadio[Public_learned_ID_num].Id_part_1=ID_Part1;                    //将ID保存到本地的变量中
//  799     AllRadio[Public_learned_ID_num].Id_part_2=ID_Part2;
        LD        (Y), A
          CFI EndBlock cfiCond29
          CFI EndBlock cfiCond30
          CFI EndBlock cfiPicker31
//  800     AllRadio[Public_learned_ID_num].Id_part_3=ID_Part3;
        REQUIRE ??Subroutine87_0
        ;               // Fall through to label ??Subroutine87_0

        SECTION `.far_func.text`:CODE:NOROOT(0)
??Subroutine87_0:
          CFI Block cfiCond32 Using cfiCommon0
          CFI Function Reply_RequestFlashData
          CFI Conditional ??CrossCallReturnLabel_161
          CFI CFA SP+30
          CFI Block cfiCond33 Using cfiCommon0
          CFI (cfiCond33) Function Reply_RequestFlashData
          CFI (cfiCond33) Conditional ??CrossCallReturnLabel_162
          CFI (cfiCond33) CFA SP+30
          CFI Block cfiCond34 Using cfiCommon0
          CFI (cfiCond34) Function FindIdInFlash
          CFI (cfiCond34) Conditional ??CrossCallReturnLabel_163
          CFI (cfiCond34) CFA SP+6
          CFI Block cfiCond35 Using cfiCommon0
          CFI (cfiCond35) Function ClearFlash
          CFI (cfiCond35) Conditional ??CrossCallReturnLabel_159
          CFI (cfiCond35) ?b10 Frame(CFA, -5)
          CFI (cfiCond35) ?b8 Frame(CFA, -4)
          CFI (cfiCond35) ?b9 Frame(CFA, -3)
          CFI (cfiCond35) CFA SP+9
          CFI Block cfiCond36 Using cfiCommon0
          CFI (cfiCond36) Function WriteIdInFlash
          CFI (cfiCond36) Conditional ??CrossCallReturnLabel_160
          CFI (cfiCond36) ?b8 Frame(CFA, -6)
          CFI (cfiCond36) ?b9 Frame(CFA, -5)
          CFI (cfiCond36) ?b10 Frame(CFA, -4)
          CFI (cfiCond36) ?b11 Frame(CFA, -3)
          CFI (cfiCond36) CFA SP+10
          CFI Block cfiPicker37 Using cfiCommon1
          CFI (cfiPicker37) NoFunction
          CFI (cfiPicker37) Picker
        LDW       Y, X
        ADDW      Y, #0x3
        RETF
          CFI EndBlock cfiCond32
          CFI EndBlock cfiCond33
          CFI EndBlock cfiCond34
          CFI EndBlock cfiCond35
          CFI EndBlock cfiCond36
          CFI EndBlock cfiPicker37

        SECTION `.far_func.text`:CODE:NOROOT(0)
?Subroutine47:
          CFI Block cfiCond38 Using cfiCommon0
          CFI Function ClearFlash
          CFI Conditional ??CrossCallReturnLabel_164
          CFI ?b10 Frame(CFA, -5)
          CFI ?b8 Frame(CFA, -4)
          CFI ?b9 Frame(CFA, -3)
          CFI CFA SP+9
          CFI Block cfiCond39 Using cfiCommon0
          CFI (cfiCond39) Function WriteIdInFlash
          CFI (cfiCond39) Conditional ??CrossCallReturnLabel_165
          CFI (cfiCond39) ?b8 Frame(CFA, -6)
          CFI (cfiCond39) ?b9 Frame(CFA, -5)
          CFI (cfiCond39) ?b10 Frame(CFA, -4)
          CFI (cfiCond39) ?b11 Frame(CFA, -3)
          CFI (cfiCond39) CFA SP+10
          CFI Block cfiPicker40 Using cfiCommon1
          CFI (cfiPicker40) NoFunction
          CFI (cfiPicker40) Picker
        LD        (Y), A
          CFI EndBlock cfiCond38
          CFI EndBlock cfiCond39
          CFI EndBlock cfiPicker40
        REQUIRE ??Subroutine88_0
        ;               // Fall through to label ??Subroutine88_0

        SECTION `.far_func.text`:CODE:NOROOT(0)
??Subroutine88_0:
          CFI Block cfiCond41 Using cfiCommon0
          CFI Function Reply_RequestFlashData
          CFI Conditional ??CrossCallReturnLabel_166
          CFI CFA SP+30
          CFI Block cfiCond42 Using cfiCommon0
          CFI (cfiCond42) Function Reply_RequestFlashData
          CFI (cfiCond42) Conditional ??CrossCallReturnLabel_167
          CFI (cfiCond42) CFA SP+30
          CFI Block cfiCond43 Using cfiCommon0
          CFI (cfiCond43) Function FindIdInFlash
          CFI (cfiCond43) Conditional ??CrossCallReturnLabel_168
          CFI (cfiCond43) CFA SP+6
          CFI Block cfiCond44 Using cfiCommon0
          CFI (cfiCond44) Function ClearFlash
          CFI (cfiCond44) Conditional ??CrossCallReturnLabel_164
          CFI (cfiCond44) ?b10 Frame(CFA, -5)
          CFI (cfiCond44) ?b8 Frame(CFA, -4)
          CFI (cfiCond44) ?b9 Frame(CFA, -3)
          CFI (cfiCond44) CFA SP+9
          CFI Block cfiCond45 Using cfiCommon0
          CFI (cfiCond45) Function WriteIdInFlash
          CFI (cfiCond45) Conditional ??CrossCallReturnLabel_165
          CFI (cfiCond45) ?b8 Frame(CFA, -6)
          CFI (cfiCond45) ?b9 Frame(CFA, -5)
          CFI (cfiCond45) ?b10 Frame(CFA, -4)
          CFI (cfiCond45) ?b11 Frame(CFA, -3)
          CFI (cfiCond45) CFA SP+10
          CFI Block cfiPicker46 Using cfiCommon1
          CFI (cfiPicker46) NoFunction
          CFI (cfiPicker46) Picker
        LDW       Y, X
        ADDW      Y, #0x2
        RETF
          CFI EndBlock cfiCond41
          CFI EndBlock cfiCond42
          CFI EndBlock cfiCond43
          CFI EndBlock cfiCond44
          CFI EndBlock cfiCond45
          CFI EndBlock cfiPicker46

        SECTION `.far_func.text`:CODE:NOROOT(0)
?Subroutine30:
          CFI Block cfiCond47 Using cfiCommon0
          CFI Function ClearFlash
          CFI Conditional ??CrossCallReturnLabel_170
          CFI ?b10 Frame(CFA, -5)
          CFI ?b8 Frame(CFA, -4)
          CFI ?b9 Frame(CFA, -3)
          CFI CFA SP+9
          CFI Block cfiCond48 Using cfiCommon0
          CFI (cfiCond48) Function FindIdInFlash
          CFI (cfiCond48) Conditional ??CrossCallReturnLabel_171
          CFI (cfiCond48) CFA SP+6
          CFI Block cfiPicker49 Using cfiCommon1
          CFI (cfiPicker49) NoFunction
          CFI (cfiPicker49) Picker
        EXG       A, YL
          CFI EndBlock cfiCond47
          CFI EndBlock cfiCond48
          CFI EndBlock cfiPicker49
        REQUIRE ??Subroutine89_0
        ;               // Fall through to label ??Subroutine89_0

        SECTION `.far_func.text`:CODE:NOROOT(0)
??Subroutine89_0:
          CFI Block cfiCond50 Using cfiCommon0
          CFI Function WriteIdInFlash
          CFI Conditional ??CrossCallReturnLabel_169
          CFI ?b8 Frame(CFA, -6)
          CFI ?b9 Frame(CFA, -5)
          CFI ?b10 Frame(CFA, -4)
          CFI ?b11 Frame(CFA, -3)
          CFI CFA SP+10
          CFI Block cfiCond51 Using cfiCommon0
          CFI (cfiCond51) Function ClearFlash
          CFI (cfiCond51) Conditional ??CrossCallReturnLabel_170
          CFI (cfiCond51) ?b10 Frame(CFA, -5)
          CFI (cfiCond51) ?b8 Frame(CFA, -4)
          CFI (cfiCond51) ?b9 Frame(CFA, -3)
          CFI (cfiCond51) CFA SP+9
          CFI Block cfiCond52 Using cfiCommon0
          CFI (cfiCond52) Function FindIdInFlash
          CFI (cfiCond52) Conditional ??CrossCallReturnLabel_171
          CFI (cfiCond52) CFA SP+6
          CFI Block cfiPicker53 Using cfiCommon1
          CFI (cfiPicker53) NoFunction
          CFI (cfiPicker53) Picker
        CALLF     ?Subroutine75
??CrossCallReturnLabel_173:
        LDW       Y, X
        INCW      Y
        RETF
          CFI EndBlock cfiCond50
          CFI EndBlock cfiCond51
          CFI EndBlock cfiCond52
          CFI EndBlock cfiPicker53

        SECTION `.far_func.text`:CODE:NOROOT(0)
?Subroutine24:
          CFI Block cfiCond54 Using cfiCommon0
          CFI Function ClearFlash
          CFI Conditional ??CrossCallReturnLabel_38
          CFI ?b10 Frame(CFA, -5)
          CFI ?b8 Frame(CFA, -4)
          CFI ?b9 Frame(CFA, -3)
          CFI CFA SP+9
          CFI Block cfiCond55 Using cfiCommon0
          CFI (cfiCond55) Function ClearFlash
          CFI (cfiCond55) Conditional ??CrossCallReturnLabel_39
          CFI (cfiCond55) ?b10 Frame(CFA, -5)
          CFI (cfiCond55) ?b8 Frame(CFA, -4)
          CFI (cfiCond55) ?b9 Frame(CFA, -3)
          CFI (cfiCond55) CFA SP+9
          CFI Block cfiPicker56 Using cfiCommon1
          CFI (cfiPicker56) NoFunction
          CFI (cfiPicker56) Picker
        CALLF     ?Subroutine74
??CrossCallReturnLabel_230:
        CLR       A
        RETF
          CFI EndBlock cfiCond54
          CFI EndBlock cfiCond55
          CFI EndBlock cfiPicker56

        SECTION `.far_func.text`:CODE:NOROOT(0)
          CFI Block cfiBlock57 Using cfiCommon0
          CFI Function UpdateDatasAdressInFlash
        CODE
UpdateDatasAdressInFlash:
        CALLF     L:?push_l2
          CFI ?b11 Frame(CFA, -3)
          CFI ?b10 Frame(CFA, -4)
          CFI ?b9 Frame(CFA, -5)
          CFI ?b8 Frame(CFA, -6)
          CFI CFA SP+7
        CALLF     L:?push_l3
          CFI ?b15 Frame(CFA, -7)
          CFI ?b14 Frame(CFA, -8)
          CFI ?b13 Frame(CFA, -9)
          CFI ?b12 Frame(CFA, -10)
          CFI CFA SP+11
        SUB       SP, #0x5
          CFI CFA SP+16
        LD        S:?b12, A
        LDW       X, #0x1010
        LDW       (0x4,SP), X
        CALLF     ?Subroutine53
??CrossCallReturnLabel_106:
        CALLF     ??Subroutine102_0
??CrossCallReturnLabel_235:
        LD        A, L:Public_learned_ID_num
        SUB       A, S:?b12
        DEC       A
        LD        (0x3,SP), A
        CLRW      X
        EXG       A, XL
        LD        A, S:?b12
        EXG       A, XL
        SLLW      X
        SLLW      X
        SLLW      X
        SLLW      X
        ADDW      X, #0x1010
        CALLF     ?Subroutine79
??CrossCallReturnLabel_140:
        LD        A, S:?b12
        INC       A
        LD        (0x1,SP), A
        CLR       A
        JPF       ??UpdateDatasAdressInFlash_0
??UpdateDatasAdressInFlash_1:
        LD        A, (0x1,SP)
        CLRW      Y
        LD        YL, A
        CALLF     ?Subroutine75
??CrossCallReturnLabel_172:
        LDW       S:?w6, X
        INCW      X
        CALLF     ?Subroutine46
??CrossCallReturnLabel_90:
        ADDW      X, #0x2
        CALLF     ?Subroutine46
??CrossCallReturnLabel_91:
        ADDW      X, #0x3
        CALLF     ?Subroutine46
??CrossCallReturnLabel_92:
        ADDW      X, #0x4
        LD        A, (X)
        CALLF     ?Subroutine54
??CrossCallReturnLabel_108:
        CALLF     L:?mov_l3_l2
        LD        A, (0x1,SP)
        CLRW      Y
        LD        YL, A
        CALLF     ?Subroutine31
??CrossCallReturnLabel_51:
        LD        A, [S:?w4.w]
        CALLF     L:?mov_l0_l3
        CALLF     FLASH_ProgramByte
        CALLF     L:?inc32_l3_l3
        LDW       X, S:?w4
        INCW      X
        CALLF     ?Subroutine45
??CrossCallReturnLabel_82:
        ADDW      X, #0x2
        CALLF     ?Subroutine45
??CrossCallReturnLabel_83:
        ADDW      X, #0x3
        CALLF     ?Subroutine45
??CrossCallReturnLabel_84:
        ADDW      X, #0x4
        CALLF     ?Subroutine45
??CrossCallReturnLabel_85:
        ADDW      X, #0x5
        CALLF     ?Subroutine45
??CrossCallReturnLabel_86:
        ADDW      X, #0x6
        CALLF     ?Subroutine45
??CrossCallReturnLabel_87:
        ADDW      X, #0x7
        CALLF     ?Subroutine45
??CrossCallReturnLabel_88:
        ADDW      X, #0x8
        CALLF     ?Subroutine45
??CrossCallReturnLabel_89:
        ADDW      X, #0x9
        CALLF     ?Subroutine77
??CrossCallReturnLabel_136:
        LDW       X, #0x3
        LDW       S:?w3, X
        CLRW      X
        LDW       S:?w2, X
        CALLF     L:?mov_l0_l3
        CALLF     L:?add32_l0_l0_l1
        CALLF     L:?mov_l2_l0
        LD        A, (0x1,SP)
        INC       A
        LD        (0x1,SP), A
        LD        A, (0x2,SP)
        INC       A
??UpdateDatasAdressInFlash_0:
        LD        (0x2,SP), A
        CP        A, (0x3,SP)
        JRNC      ??lb_9
        JP        L:??UpdateDatasAdressInFlash_1
??lb_9:
        LD        A, L:Public_learned_ID_num
        CLRW      X
        LD        XL, A
        SLLW      X
        SLLW      X
        SLLW      X
        SLLW      X
        ADDW      X, #0x1000
        CALLF     ?Subroutine79
??CrossCallReturnLabel_141:
        MOV       S:?b12, #0x10
??UpdateDatasAdressInFlash_2:
        CLR       A
        CALLF     ?Subroutine54
??CrossCallReturnLabel_109:
        LD        A, S:?b12
        DEC       A
        LD        S:?b12, A
        JRNE      L:??UpdateDatasAdressInFlash_2
        LD        A, L:Public_learned_ID_num
        SWAP      A
        AND       A, #0xf0
        LDW       X, #0x1006
        CALLF     ??Subroutine100_0
??CrossCallReturnLabel_223:
        LD        A, L:Public_learned_ID_num
        DEC       A
        CALLF     ?Subroutine25
??CrossCallReturnLabel_220:
        CALLF     ?Subroutine11
??CrossCallReturnLabel_12:
        CLRW      Y
        LD        YL, A
        CLRW      X
        EXG       A, XL
        LD        A, S:?b8
        EXG       A, XL
        CLR       A
        RLWA      X, A
        LDW       S:?w0, Y
        ADDW      X, S:?w0
        LDW       L:IdStartAddress, X
        CLR       S:?b10
??UpdateDatasAdressInFlash_3:
        CALLF     ?Subroutine28
??CrossCallReturnLabel_44:
        LDW       X, (0x4,SP)
        CALLF     ?Subroutine26
??CrossCallReturnLabel_40:
        LDW       X, S:?w4
        INCW      X
        LD        (X), A
        LDW       X, (0x4,SP)
        CALLF     ?Subroutine27
??CrossCallReturnLabel_42:
        LDW       (0x4,SP), X
        LD        A, S:?b10
        INC       A
        LD        S:?b10, A
        CP        A, #0xa
        JRC       L:??UpdateDatasAdressInFlash_3
        CALLF     ?Subroutine52
??CrossCallReturnLabel_101:
        ADD       SP, #0x5
          CFI CFA SP+11
        JPF       L:?epilogue_l2_l3
          CFI EndBlock cfiBlock57

        SECTION `.far_func.text`:CODE:NOROOT(0)
?Subroutine75:
          CFI Block cfiCond58 Using cfiCommon0
          CFI Function ClearFlash
          CFI Conditional ??CrossCallReturnLabel_173, ??CrossCallReturnLabel_170
          CFI ?b10 Frame(CFA, -5)
          CFI ?b8 Frame(CFA, -4)
          CFI ?b9 Frame(CFA, -3)
          CFI CFA SP+12
          CFI Block cfiCond59 Using cfiCommon0
          CFI (cfiCond59) Function FindIdInFlash
          CFI (cfiCond59) Conditional ??CrossCallReturnLabel_173, ??CrossCallReturnLabel_171
          CFI (cfiCond59) CFA SP+9
          CFI Block cfiCond60 Using cfiCommon0
          CFI (cfiCond60) Function WriteIdInFlash
          CFI (cfiCond60) Conditional ??CrossCallReturnLabel_173, ??CrossCallReturnLabel_169
          CFI (cfiCond60) ?b8 Frame(CFA, -6)
          CFI (cfiCond60) ?b9 Frame(CFA, -5)
          CFI (cfiCond60) ?b10 Frame(CFA, -4)
          CFI (cfiCond60) ?b11 Frame(CFA, -3)
          CFI (cfiCond60) CFA SP+13
          CFI Block cfiCond61 Using cfiCommon0
          CFI (cfiCond61) Function UpdateDatasAdressInFlash
          CFI (cfiCond61) Conditional ??CrossCallReturnLabel_172
          CFI (cfiCond61) ?b12 Frame(CFA, -10)
          CFI (cfiCond61) ?b13 Frame(CFA, -9)
          CFI (cfiCond61) ?b14 Frame(CFA, -8)
          CFI (cfiCond61) ?b15 Frame(CFA, -7)
          CFI (cfiCond61) ?b8 Frame(CFA, -6)
          CFI (cfiCond61) ?b9 Frame(CFA, -5)
          CFI (cfiCond61) ?b10 Frame(CFA, -4)
          CFI (cfiCond61) ?b11 Frame(CFA, -3)
          CFI (cfiCond61) CFA SP+19
          CFI Block cfiPicker62 Using cfiCommon1
          CFI (cfiPicker62) NoFunction
          CFI (cfiPicker62) Picker
        LDW       X, #0x7
        LDW       S:?w0, X
        LDW       X, Y
        CALLF     ?Subroutine83
??CrossCallReturnLabel_176:
        RETF
          CFI EndBlock cfiCond58
          CFI EndBlock cfiCond59
          CFI EndBlock cfiCond60
          CFI EndBlock cfiCond61
          CFI EndBlock cfiPicker62

        SECTION `.far_func.text`:CODE:NOROOT(0)
?Subroutine83:
          CFI Block cfiCond63 Using cfiCommon0
          CFI Function Reply_RequestFlashData
          CFI Conditional ??CrossCallReturnLabel_174
          CFI CFA SP+30
          CFI Block cfiCond64 Using cfiCommon0
          CFI (cfiCond64) Function ClearFlash
          CFI (cfiCond64) Conditional ??CrossCallReturnLabel_176, ??CrossCallReturnLabel_173, ??CrossCallReturnLabel_170
          CFI (cfiCond64) ?b10 Frame(CFA, -5)
          CFI (cfiCond64) ?b8 Frame(CFA, -4)
          CFI (cfiCond64) ?b9 Frame(CFA, -3)
          CFI (cfiCond64) CFA SP+15
          CFI Block cfiCond65 Using cfiCommon0
          CFI (cfiCond65) Function FindIdInFlash
          CFI (cfiCond65) Conditional ??CrossCallReturnLabel_176, ??CrossCallReturnLabel_173, ??CrossCallReturnLabel_171
          CFI (cfiCond65) CFA SP+12
          CFI Block cfiCond66 Using cfiCommon0
          CFI (cfiCond66) Function WriteIdInFlash
          CFI (cfiCond66) Conditional ??CrossCallReturnLabel_176, ??CrossCallReturnLabel_173, ??CrossCallReturnLabel_169
          CFI (cfiCond66) ?b8 Frame(CFA, -6)
          CFI (cfiCond66) ?b9 Frame(CFA, -5)
          CFI (cfiCond66) ?b10 Frame(CFA, -4)
          CFI (cfiCond66) ?b11 Frame(CFA, -3)
          CFI (cfiCond66) CFA SP+16
          CFI Block cfiCond67 Using cfiCommon0
          CFI (cfiCond67) Function UpdateDatasAdressInFlash
          CFI (cfiCond67) Conditional ??CrossCallReturnLabel_176, ??CrossCallReturnLabel_172
          CFI (cfiCond67) ?b12 Frame(CFA, -10)
          CFI (cfiCond67) ?b13 Frame(CFA, -9)
          CFI (cfiCond67) ?b14 Frame(CFA, -8)
          CFI (cfiCond67) ?b15 Frame(CFA, -7)
          CFI (cfiCond67) ?b8 Frame(CFA, -6)
          CFI (cfiCond67) ?b9 Frame(CFA, -5)
          CFI (cfiCond67) ?b10 Frame(CFA, -4)
          CFI (cfiCond67) ?b11 Frame(CFA, -3)
          CFI (cfiCond67) CFA SP+22
          CFI Block cfiCond68 Using cfiCommon0
          CFI (cfiCond68) Function UpdateDatasAdressInFlash
          CFI (cfiCond68) Conditional ??CrossCallReturnLabel_175, ??CrossCallReturnLabel_44
          CFI (cfiCond68) ?b12 Frame(CFA, -10)
          CFI (cfiCond68) ?b13 Frame(CFA, -9)
          CFI (cfiCond68) ?b14 Frame(CFA, -8)
          CFI (cfiCond68) ?b15 Frame(CFA, -7)
          CFI (cfiCond68) ?b8 Frame(CFA, -6)
          CFI (cfiCond68) ?b9 Frame(CFA, -5)
          CFI (cfiCond68) ?b10 Frame(CFA, -4)
          CFI (cfiCond68) ?b11 Frame(CFA, -3)
          CFI (cfiCond68) CFA SP+22
          CFI Block cfiCond69 Using cfiCommon0
          CFI (cfiCond69) Function ReadIdInFlash
          CFI (cfiCond69) Conditional ??CrossCallReturnLabel_175, ??CrossCallReturnLabel_45
          CFI (cfiCond69) ?b10 Frame(CFA, -9)
          CFI (cfiCond69) ?b8 Frame(CFA, -8)
          CFI (cfiCond69) ?b9 Frame(CFA, -7)
          CFI (cfiCond69) ?b12 Frame(CFA, -6)
          CFI (cfiCond69) ?b13 Frame(CFA, -5)
          CFI (cfiCond69) ?b14 Frame(CFA, -4)
          CFI (cfiCond69) ?b15 Frame(CFA, -3)
          CFI (cfiCond69) CFA SP+16
          CFI Block cfiPicker70 Using cfiCommon1
          CFI (cfiPicker70) NoFunction
          CFI (cfiPicker70) Picker
        CALLF     L:?mul16_x_x_w0
        ADDW      X, #AllRadio
        RETF
          CFI EndBlock cfiCond63
          CFI EndBlock cfiCond64
          CFI EndBlock cfiCond65
          CFI EndBlock cfiCond66
          CFI EndBlock cfiCond67
          CFI EndBlock cfiCond68
          CFI EndBlock cfiCond69
          CFI EndBlock cfiPicker70

        SECTION `.far_func.text`:CODE:NOROOT(0)
?Subroutine54:
          CFI Block cfiCond71 Using cfiCommon0
          CFI Function UpdateDatasAdressInFlash
          CFI Conditional ??CrossCallReturnLabel_108
          CFI ?b12 Frame(CFA, -10)
          CFI ?b13 Frame(CFA, -9)
          CFI ?b14 Frame(CFA, -8)
          CFI ?b15 Frame(CFA, -7)
          CFI ?b8 Frame(CFA, -6)
          CFI ?b9 Frame(CFA, -5)
          CFI ?b10 Frame(CFA, -4)
          CFI ?b11 Frame(CFA, -3)
          CFI CFA SP+19
          CFI Block cfiCond72 Using cfiCommon0
          CFI (cfiCond72) Function UpdateDatasAdressInFlash
          CFI (cfiCond72) Conditional ??CrossCallReturnLabel_109
          CFI (cfiCond72) ?b12 Frame(CFA, -10)
          CFI (cfiCond72) ?b13 Frame(CFA, -9)
          CFI (cfiCond72) ?b14 Frame(CFA, -8)
          CFI (cfiCond72) ?b15 Frame(CFA, -7)
          CFI (cfiCond72) ?b8 Frame(CFA, -6)
          CFI (cfiCond72) ?b9 Frame(CFA, -5)
          CFI (cfiCond72) ?b10 Frame(CFA, -4)
          CFI (cfiCond72) ?b11 Frame(CFA, -3)
          CFI (cfiCond72) CFA SP+19
          CFI Block cfiPicker73 Using cfiCommon1
          CFI (cfiPicker73) NoFunction
          CFI (cfiPicker73) Picker
        CALLF     ?Subroutine80
??CrossCallReturnLabel_146:
        RETF
          CFI EndBlock cfiCond71
          CFI EndBlock cfiCond72
          CFI EndBlock cfiPicker73

        SECTION `.far_func.text`:CODE:NOROOT(0)
?Subroutine80:
          CFI Block cfiCond74 Using cfiCommon0
          CFI Function UpdateDatasAdressInFlash
          CFI Conditional ??CrossCallReturnLabel_146, ??CrossCallReturnLabel_108
          CFI ?b12 Frame(CFA, -10)
          CFI ?b13 Frame(CFA, -9)
          CFI ?b14 Frame(CFA, -8)
          CFI ?b15 Frame(CFA, -7)
          CFI ?b8 Frame(CFA, -6)
          CFI ?b9 Frame(CFA, -5)
          CFI ?b10 Frame(CFA, -4)
          CFI ?b11 Frame(CFA, -3)
          CFI CFA SP+22
          CFI Block cfiCond75 Using cfiCommon0
          CFI (cfiCond75) Function UpdateDatasAdressInFlash
          CFI (cfiCond75) Conditional ??CrossCallReturnLabel_146, ??CrossCallReturnLabel_109
          CFI (cfiCond75) ?b12 Frame(CFA, -10)
          CFI (cfiCond75) ?b13 Frame(CFA, -9)
          CFI (cfiCond75) ?b14 Frame(CFA, -8)
          CFI (cfiCond75) ?b15 Frame(CFA, -7)
          CFI (cfiCond75) ?b8 Frame(CFA, -6)
          CFI (cfiCond75) ?b9 Frame(CFA, -5)
          CFI (cfiCond75) ?b10 Frame(CFA, -4)
          CFI (cfiCond75) ?b11 Frame(CFA, -3)
          CFI (cfiCond75) CFA SP+22
          CFI Block cfiCond76 Using cfiCommon0
          CFI (cfiCond76) Function UpdateDatasAdressInFlash
          CFI (cfiCond76) Conditional ??CrossCallReturnLabel_145, ??CrossCallReturnLabel_90
          CFI (cfiCond76) ?b12 Frame(CFA, -10)
          CFI (cfiCond76) ?b13 Frame(CFA, -9)
          CFI (cfiCond76) ?b14 Frame(CFA, -8)
          CFI (cfiCond76) ?b15 Frame(CFA, -7)
          CFI (cfiCond76) ?b8 Frame(CFA, -6)
          CFI (cfiCond76) ?b9 Frame(CFA, -5)
          CFI (cfiCond76) ?b10 Frame(CFA, -4)
          CFI (cfiCond76) ?b11 Frame(CFA, -3)
          CFI (cfiCond76) CFA SP+22
          CFI Block cfiCond77 Using cfiCommon0
          CFI (cfiCond77) Function UpdateDatasAdressInFlash
          CFI (cfiCond77) Conditional ??CrossCallReturnLabel_145, ??CrossCallReturnLabel_91
          CFI (cfiCond77) ?b12 Frame(CFA, -10)
          CFI (cfiCond77) ?b13 Frame(CFA, -9)
          CFI (cfiCond77) ?b14 Frame(CFA, -8)
          CFI (cfiCond77) ?b15 Frame(CFA, -7)
          CFI (cfiCond77) ?b8 Frame(CFA, -6)
          CFI (cfiCond77) ?b9 Frame(CFA, -5)
          CFI (cfiCond77) ?b10 Frame(CFA, -4)
          CFI (cfiCond77) ?b11 Frame(CFA, -3)
          CFI (cfiCond77) CFA SP+22
          CFI Block cfiCond78 Using cfiCommon0
          CFI (cfiCond78) Function UpdateDatasAdressInFlash
          CFI (cfiCond78) Conditional ??CrossCallReturnLabel_145, ??CrossCallReturnLabel_92
          CFI (cfiCond78) ?b12 Frame(CFA, -10)
          CFI (cfiCond78) ?b13 Frame(CFA, -9)
          CFI (cfiCond78) ?b14 Frame(CFA, -8)
          CFI (cfiCond78) ?b15 Frame(CFA, -7)
          CFI (cfiCond78) ?b8 Frame(CFA, -6)
          CFI (cfiCond78) ?b9 Frame(CFA, -5)
          CFI (cfiCond78) ?b10 Frame(CFA, -4)
          CFI (cfiCond78) ?b11 Frame(CFA, -3)
          CFI (cfiCond78) CFA SP+22
          CFI Block cfiPicker79 Using cfiCommon1
          CFI (cfiPicker79) NoFunction
          CFI (cfiPicker79) Picker
        CALLF     L:?mov_l0_l2
        CALLF     FLASH_ProgramByte
        JPF       L:?inc32_l2_l2
          CFI EndBlock cfiCond74
          CFI EndBlock cfiCond75
          CFI EndBlock cfiCond76
          CFI EndBlock cfiCond77
          CFI EndBlock cfiCond78
          CFI EndBlock cfiPicker79

        SECTION `.far_func.text`:CODE:NOROOT(0)
?Subroutine46:
          CFI Block cfiCond80 Using cfiCommon0
          CFI Function UpdateDatasAdressInFlash
          CFI Conditional ??CrossCallReturnLabel_90
          CFI ?b12 Frame(CFA, -10)
          CFI ?b13 Frame(CFA, -9)
          CFI ?b14 Frame(CFA, -8)
          CFI ?b15 Frame(CFA, -7)
          CFI ?b8 Frame(CFA, -6)
          CFI ?b9 Frame(CFA, -5)
          CFI ?b10 Frame(CFA, -4)
          CFI ?b11 Frame(CFA, -3)
          CFI CFA SP+19
          CFI Block cfiCond81 Using cfiCommon0
          CFI (cfiCond81) Function UpdateDatasAdressInFlash
          CFI (cfiCond81) Conditional ??CrossCallReturnLabel_91
          CFI (cfiCond81) ?b12 Frame(CFA, -10)
          CFI (cfiCond81) ?b13 Frame(CFA, -9)
          CFI (cfiCond81) ?b14 Frame(CFA, -8)
          CFI (cfiCond81) ?b15 Frame(CFA, -7)
          CFI (cfiCond81) ?b8 Frame(CFA, -6)
          CFI (cfiCond81) ?b9 Frame(CFA, -5)
          CFI (cfiCond81) ?b10 Frame(CFA, -4)
          CFI (cfiCond81) ?b11 Frame(CFA, -3)
          CFI (cfiCond81) CFA SP+19
          CFI Block cfiCond82 Using cfiCommon0
          CFI (cfiCond82) Function UpdateDatasAdressInFlash
          CFI (cfiCond82) Conditional ??CrossCallReturnLabel_92
          CFI (cfiCond82) ?b12 Frame(CFA, -10)
          CFI (cfiCond82) ?b13 Frame(CFA, -9)
          CFI (cfiCond82) ?b14 Frame(CFA, -8)
          CFI (cfiCond82) ?b15 Frame(CFA, -7)
          CFI (cfiCond82) ?b8 Frame(CFA, -6)
          CFI (cfiCond82) ?b9 Frame(CFA, -5)
          CFI (cfiCond82) ?b10 Frame(CFA, -4)
          CFI (cfiCond82) ?b11 Frame(CFA, -3)
          CFI (cfiCond82) CFA SP+19
          CFI Block cfiPicker83 Using cfiCommon1
          CFI (cfiPicker83) NoFunction
          CFI (cfiPicker83) Picker
        LD        A, (X)
        CALLF     ?Subroutine80
??CrossCallReturnLabel_145:
        LDW       X, S:?w6
        RETF
          CFI EndBlock cfiCond80
          CFI EndBlock cfiCond81
          CFI EndBlock cfiCond82
          CFI EndBlock cfiPicker83

        SECTION `.far_func.text`:CODE:NOROOT(0)
?Subroutine45:
          CFI Block cfiCond84 Using cfiCommon0
          CFI Function UpdateDatasAdressInFlash
          CFI Conditional ??CrossCallReturnLabel_82
          CFI ?b12 Frame(CFA, -10)
          CFI ?b13 Frame(CFA, -9)
          CFI ?b14 Frame(CFA, -8)
          CFI ?b15 Frame(CFA, -7)
          CFI ?b8 Frame(CFA, -6)
          CFI ?b9 Frame(CFA, -5)
          CFI ?b10 Frame(CFA, -4)
          CFI ?b11 Frame(CFA, -3)
          CFI CFA SP+19
          CFI Block cfiCond85 Using cfiCommon0
          CFI (cfiCond85) Function UpdateDatasAdressInFlash
          CFI (cfiCond85) Conditional ??CrossCallReturnLabel_83
          CFI (cfiCond85) ?b12 Frame(CFA, -10)
          CFI (cfiCond85) ?b13 Frame(CFA, -9)
          CFI (cfiCond85) ?b14 Frame(CFA, -8)
          CFI (cfiCond85) ?b15 Frame(CFA, -7)
          CFI (cfiCond85) ?b8 Frame(CFA, -6)
          CFI (cfiCond85) ?b9 Frame(CFA, -5)
          CFI (cfiCond85) ?b10 Frame(CFA, -4)
          CFI (cfiCond85) ?b11 Frame(CFA, -3)
          CFI (cfiCond85) CFA SP+19
          CFI Block cfiCond86 Using cfiCommon0
          CFI (cfiCond86) Function UpdateDatasAdressInFlash
          CFI (cfiCond86) Conditional ??CrossCallReturnLabel_84
          CFI (cfiCond86) ?b12 Frame(CFA, -10)
          CFI (cfiCond86) ?b13 Frame(CFA, -9)
          CFI (cfiCond86) ?b14 Frame(CFA, -8)
          CFI (cfiCond86) ?b15 Frame(CFA, -7)
          CFI (cfiCond86) ?b8 Frame(CFA, -6)
          CFI (cfiCond86) ?b9 Frame(CFA, -5)
          CFI (cfiCond86) ?b10 Frame(CFA, -4)
          CFI (cfiCond86) ?b11 Frame(CFA, -3)
          CFI (cfiCond86) CFA SP+19
          CFI Block cfiCond87 Using cfiCommon0
          CFI (cfiCond87) Function UpdateDatasAdressInFlash
          CFI (cfiCond87) Conditional ??CrossCallReturnLabel_85
          CFI (cfiCond87) ?b12 Frame(CFA, -10)
          CFI (cfiCond87) ?b13 Frame(CFA, -9)
          CFI (cfiCond87) ?b14 Frame(CFA, -8)
          CFI (cfiCond87) ?b15 Frame(CFA, -7)
          CFI (cfiCond87) ?b8 Frame(CFA, -6)
          CFI (cfiCond87) ?b9 Frame(CFA, -5)
          CFI (cfiCond87) ?b10 Frame(CFA, -4)
          CFI (cfiCond87) ?b11 Frame(CFA, -3)
          CFI (cfiCond87) CFA SP+19
          CFI Block cfiCond88 Using cfiCommon0
          CFI (cfiCond88) Function UpdateDatasAdressInFlash
          CFI (cfiCond88) Conditional ??CrossCallReturnLabel_86
          CFI (cfiCond88) ?b12 Frame(CFA, -10)
          CFI (cfiCond88) ?b13 Frame(CFA, -9)
          CFI (cfiCond88) ?b14 Frame(CFA, -8)
          CFI (cfiCond88) ?b15 Frame(CFA, -7)
          CFI (cfiCond88) ?b8 Frame(CFA, -6)
          CFI (cfiCond88) ?b9 Frame(CFA, -5)
          CFI (cfiCond88) ?b10 Frame(CFA, -4)
          CFI (cfiCond88) ?b11 Frame(CFA, -3)
          CFI (cfiCond88) CFA SP+19
          CFI Block cfiCond89 Using cfiCommon0
          CFI (cfiCond89) Function UpdateDatasAdressInFlash
          CFI (cfiCond89) Conditional ??CrossCallReturnLabel_87
          CFI (cfiCond89) ?b12 Frame(CFA, -10)
          CFI (cfiCond89) ?b13 Frame(CFA, -9)
          CFI (cfiCond89) ?b14 Frame(CFA, -8)
          CFI (cfiCond89) ?b15 Frame(CFA, -7)
          CFI (cfiCond89) ?b8 Frame(CFA, -6)
          CFI (cfiCond89) ?b9 Frame(CFA, -5)
          CFI (cfiCond89) ?b10 Frame(CFA, -4)
          CFI (cfiCond89) ?b11 Frame(CFA, -3)
          CFI (cfiCond89) CFA SP+19
          CFI Block cfiCond90 Using cfiCommon0
          CFI (cfiCond90) Function UpdateDatasAdressInFlash
          CFI (cfiCond90) Conditional ??CrossCallReturnLabel_88
          CFI (cfiCond90) ?b12 Frame(CFA, -10)
          CFI (cfiCond90) ?b13 Frame(CFA, -9)
          CFI (cfiCond90) ?b14 Frame(CFA, -8)
          CFI (cfiCond90) ?b15 Frame(CFA, -7)
          CFI (cfiCond90) ?b8 Frame(CFA, -6)
          CFI (cfiCond90) ?b9 Frame(CFA, -5)
          CFI (cfiCond90) ?b10 Frame(CFA, -4)
          CFI (cfiCond90) ?b11 Frame(CFA, -3)
          CFI (cfiCond90) CFA SP+19
          CFI Block cfiCond91 Using cfiCommon0
          CFI (cfiCond91) Function UpdateDatasAdressInFlash
          CFI (cfiCond91) Conditional ??CrossCallReturnLabel_89
          CFI (cfiCond91) ?b12 Frame(CFA, -10)
          CFI (cfiCond91) ?b13 Frame(CFA, -9)
          CFI (cfiCond91) ?b14 Frame(CFA, -8)
          CFI (cfiCond91) ?b15 Frame(CFA, -7)
          CFI (cfiCond91) ?b8 Frame(CFA, -6)
          CFI (cfiCond91) ?b9 Frame(CFA, -5)
          CFI (cfiCond91) ?b10 Frame(CFA, -4)
          CFI (cfiCond91) ?b11 Frame(CFA, -3)
          CFI (cfiCond91) CFA SP+19
          CFI Block cfiPicker92 Using cfiCommon1
          CFI (cfiPicker92) NoFunction
          CFI (cfiPicker92) Picker
        CALLF     ?Subroutine77
??CrossCallReturnLabel_135:
        CALLF     L:?inc32_l3_l3
        LDW       X, S:?w4
        RETF
          CFI EndBlock cfiCond84
          CFI EndBlock cfiCond85
          CFI EndBlock cfiCond86
          CFI EndBlock cfiCond87
          CFI EndBlock cfiCond88
          CFI EndBlock cfiCond89
          CFI EndBlock cfiCond90
          CFI EndBlock cfiCond91
          CFI EndBlock cfiPicker92

        SECTION `.far_func.text`:CODE:NOROOT(0)
?Subroutine77:
          CFI Block cfiCond93 Using cfiCommon0
          CFI Function UpdateDatasAdressInFlash
          CFI Conditional ??CrossCallReturnLabel_136
          CFI ?b12 Frame(CFA, -10)
          CFI ?b13 Frame(CFA, -9)
          CFI ?b14 Frame(CFA, -8)
          CFI ?b15 Frame(CFA, -7)
          CFI ?b8 Frame(CFA, -6)
          CFI ?b9 Frame(CFA, -5)
          CFI ?b10 Frame(CFA, -4)
          CFI ?b11 Frame(CFA, -3)
          CFI CFA SP+19
          CFI Block cfiCond94 Using cfiCommon0
          CFI (cfiCond94) Function UpdateDatasAdressInFlash
          CFI (cfiCond94) Conditional ??CrossCallReturnLabel_135, ??CrossCallReturnLabel_82
          CFI (cfiCond94) ?b12 Frame(CFA, -10)
          CFI (cfiCond94) ?b13 Frame(CFA, -9)
          CFI (cfiCond94) ?b14 Frame(CFA, -8)
          CFI (cfiCond94) ?b15 Frame(CFA, -7)
          CFI (cfiCond94) ?b8 Frame(CFA, -6)
          CFI (cfiCond94) ?b9 Frame(CFA, -5)
          CFI (cfiCond94) ?b10 Frame(CFA, -4)
          CFI (cfiCond94) ?b11 Frame(CFA, -3)
          CFI (cfiCond94) CFA SP+22
          CFI Block cfiCond95 Using cfiCommon0
          CFI (cfiCond95) Function UpdateDatasAdressInFlash
          CFI (cfiCond95) Conditional ??CrossCallReturnLabel_135, ??CrossCallReturnLabel_83
          CFI (cfiCond95) ?b12 Frame(CFA, -10)
          CFI (cfiCond95) ?b13 Frame(CFA, -9)
          CFI (cfiCond95) ?b14 Frame(CFA, -8)
          CFI (cfiCond95) ?b15 Frame(CFA, -7)
          CFI (cfiCond95) ?b8 Frame(CFA, -6)
          CFI (cfiCond95) ?b9 Frame(CFA, -5)
          CFI (cfiCond95) ?b10 Frame(CFA, -4)
          CFI (cfiCond95) ?b11 Frame(CFA, -3)
          CFI (cfiCond95) CFA SP+22
          CFI Block cfiCond96 Using cfiCommon0
          CFI (cfiCond96) Function UpdateDatasAdressInFlash
          CFI (cfiCond96) Conditional ??CrossCallReturnLabel_135, ??CrossCallReturnLabel_84
          CFI (cfiCond96) ?b12 Frame(CFA, -10)
          CFI (cfiCond96) ?b13 Frame(CFA, -9)
          CFI (cfiCond96) ?b14 Frame(CFA, -8)
          CFI (cfiCond96) ?b15 Frame(CFA, -7)
          CFI (cfiCond96) ?b8 Frame(CFA, -6)
          CFI (cfiCond96) ?b9 Frame(CFA, -5)
          CFI (cfiCond96) ?b10 Frame(CFA, -4)
          CFI (cfiCond96) ?b11 Frame(CFA, -3)
          CFI (cfiCond96) CFA SP+22
          CFI Block cfiCond97 Using cfiCommon0
          CFI (cfiCond97) Function UpdateDatasAdressInFlash
          CFI (cfiCond97) Conditional ??CrossCallReturnLabel_135, ??CrossCallReturnLabel_85
          CFI (cfiCond97) ?b12 Frame(CFA, -10)
          CFI (cfiCond97) ?b13 Frame(CFA, -9)
          CFI (cfiCond97) ?b14 Frame(CFA, -8)
          CFI (cfiCond97) ?b15 Frame(CFA, -7)
          CFI (cfiCond97) ?b8 Frame(CFA, -6)
          CFI (cfiCond97) ?b9 Frame(CFA, -5)
          CFI (cfiCond97) ?b10 Frame(CFA, -4)
          CFI (cfiCond97) ?b11 Frame(CFA, -3)
          CFI (cfiCond97) CFA SP+22
          CFI Block cfiCond98 Using cfiCommon0
          CFI (cfiCond98) Function UpdateDatasAdressInFlash
          CFI (cfiCond98) Conditional ??CrossCallReturnLabel_135, ??CrossCallReturnLabel_86
          CFI (cfiCond98) ?b12 Frame(CFA, -10)
          CFI (cfiCond98) ?b13 Frame(CFA, -9)
          CFI (cfiCond98) ?b14 Frame(CFA, -8)
          CFI (cfiCond98) ?b15 Frame(CFA, -7)
          CFI (cfiCond98) ?b8 Frame(CFA, -6)
          CFI (cfiCond98) ?b9 Frame(CFA, -5)
          CFI (cfiCond98) ?b10 Frame(CFA, -4)
          CFI (cfiCond98) ?b11 Frame(CFA, -3)
          CFI (cfiCond98) CFA SP+22
          CFI Block cfiCond99 Using cfiCommon0
          CFI (cfiCond99) Function UpdateDatasAdressInFlash
          CFI (cfiCond99) Conditional ??CrossCallReturnLabel_135, ??CrossCallReturnLabel_87
          CFI (cfiCond99) ?b12 Frame(CFA, -10)
          CFI (cfiCond99) ?b13 Frame(CFA, -9)
          CFI (cfiCond99) ?b14 Frame(CFA, -8)
          CFI (cfiCond99) ?b15 Frame(CFA, -7)
          CFI (cfiCond99) ?b8 Frame(CFA, -6)
          CFI (cfiCond99) ?b9 Frame(CFA, -5)
          CFI (cfiCond99) ?b10 Frame(CFA, -4)
          CFI (cfiCond99) ?b11 Frame(CFA, -3)
          CFI (cfiCond99) CFA SP+22
          CFI Block cfiCond100 Using cfiCommon0
          CFI (cfiCond100) Function UpdateDatasAdressInFlash
          CFI (cfiCond100) Conditional ??CrossCallReturnLabel_135, ??CrossCallReturnLabel_88
          CFI (cfiCond100) ?b12 Frame(CFA, -10)
          CFI (cfiCond100) ?b13 Frame(CFA, -9)
          CFI (cfiCond100) ?b14 Frame(CFA, -8)
          CFI (cfiCond100) ?b15 Frame(CFA, -7)
          CFI (cfiCond100) ?b8 Frame(CFA, -6)
          CFI (cfiCond100) ?b9 Frame(CFA, -5)
          CFI (cfiCond100) ?b10 Frame(CFA, -4)
          CFI (cfiCond100) ?b11 Frame(CFA, -3)
          CFI (cfiCond100) CFA SP+22
          CFI Block cfiCond101 Using cfiCommon0
          CFI (cfiCond101) Function UpdateDatasAdressInFlash
          CFI (cfiCond101) Conditional ??CrossCallReturnLabel_135, ??CrossCallReturnLabel_89
          CFI (cfiCond101) ?b12 Frame(CFA, -10)
          CFI (cfiCond101) ?b13 Frame(CFA, -9)
          CFI (cfiCond101) ?b14 Frame(CFA, -8)
          CFI (cfiCond101) ?b15 Frame(CFA, -7)
          CFI (cfiCond101) ?b8 Frame(CFA, -6)
          CFI (cfiCond101) ?b9 Frame(CFA, -5)
          CFI (cfiCond101) ?b10 Frame(CFA, -4)
          CFI (cfiCond101) ?b11 Frame(CFA, -3)
          CFI (cfiCond101) CFA SP+22
          CFI Block cfiPicker102 Using cfiCommon1
          CFI (cfiPicker102) NoFunction
          CFI (cfiPicker102) Picker
        LD        A, (X)
        CALLF     L:?mov_l0_l3
        JPF       FLASH_ProgramByte
          CFI EndBlock cfiCond93
          CFI EndBlock cfiCond94
          CFI EndBlock cfiCond95
          CFI EndBlock cfiCond96
          CFI EndBlock cfiCond97
          CFI EndBlock cfiCond98
          CFI EndBlock cfiCond99
          CFI EndBlock cfiCond100
          CFI EndBlock cfiCond101
          CFI EndBlock cfiPicker102

        SECTION `.far_func.text`:CODE:NOROOT(0)
?Subroutine31:
          CFI Block cfiCond103 Using cfiCommon0
          CFI Function CommonMode_OperateLine
          CFI Conditional ??CrossCallReturnLabel_50
          CFI ?b8 Frame(CFA, -4)
          CFI ?b9 Frame(CFA, -3)
          CFI CFA SP+8
          CFI Block cfiCond104 Using cfiCommon0
          CFI (cfiCond104) Function UpdateDatasAdressInFlash
          CFI (cfiCond104) Conditional ??CrossCallReturnLabel_51
          CFI (cfiCond104) ?b12 Frame(CFA, -10)
          CFI (cfiCond104) ?b13 Frame(CFA, -9)
          CFI (cfiCond104) ?b14 Frame(CFA, -8)
          CFI (cfiCond104) ?b15 Frame(CFA, -7)
          CFI (cfiCond104) ?b8 Frame(CFA, -6)
          CFI (cfiCond104) ?b9 Frame(CFA, -5)
          CFI (cfiCond104) ?b10 Frame(CFA, -4)
          CFI (cfiCond104) ?b11 Frame(CFA, -3)
          CFI (cfiCond104) CFA SP+19
          CFI Block cfiPicker105 Using cfiCommon1
          CFI (cfiPicker105) NoFunction
          CFI (cfiPicker105) Picker
        CALLF     ?Subroutine76
??CrossCallReturnLabel_180:
        LDW       S:?w4, X
        RETF
          CFI EndBlock cfiCond103
          CFI EndBlock cfiCond104
          CFI EndBlock cfiPicker105
//  801     AllRadio[Public_learned_ID_num].Id_part_4=ID_Part4;    
//  802     Public_learned_ID_num++;                                               //已学习ID数量加1
//  803     FLASH_ProgramByte(IDCOUNTADD,Public_learned_ID_num);                                   
//  804         
//  805     FLASH_ProgramByte(IdStartAddress,ID_Part1);                            //将ID分开写入Flash中
//  806     IdStartAddress++;
//  807     FLASH_ProgramByte(IdStartAddress,ID_Part2);
//  808     IdStartAddress++;
//  809     FLASH_ProgramByte(IdStartAddress,ID_Part3);
//  810     IdStartAddress++;
//  811     FLASH_ProgramByte(IdStartAddress,ID_Part4);   
//  812     IdStartAddress += 0xD;
//  813     
//  814     FLASH_ProgramByte(NEWIDADDRESSINFLASH_PART_1,(IdStartAddress >> 8));   //将IdStartAddress写入该位置
//  815     FLASH_ProgramByte(NEWIDADDRESSINFLASH_PART_2,(IdStartAddress & 0xff));
//  816     
//  817     FLASH_Lock(FLASH_MemType_Data);                                     //锁定Flash
//  818 }
//  819 
//  820 
//  821 /**
//  822 @function： 将开关的键值对应的操作写入Flash中 
//  823 @parameter：key1 & key2： 开关中一路中两个按键的键值
//  824 @parameter：ABIO_Line：   对应执行器中的回路
//  825 @parameter：ID_NUM：      对应Flash中条目的编号（从0开始计数）
//  826 **/

        SECTION `.far_func.text`:CODE:NOROOT(0)
?Subroutine76:
          CFI Block cfiCond106 Using cfiCommon0
          CFI Function CommonMode_OperateLine
          CFI Conditional ??CrossCallReturnLabel_180, ??CrossCallReturnLabel_50
          CFI ?b8 Frame(CFA, -4)
          CFI ?b9 Frame(CFA, -3)
          CFI CFA SP+11
          CFI Block cfiCond107 Using cfiCommon0
          CFI (cfiCond107) Function UpdateDatasAdressInFlash
          CFI (cfiCond107) Conditional ??CrossCallReturnLabel_180, ??CrossCallReturnLabel_51
          CFI (cfiCond107) ?b12 Frame(CFA, -10)
          CFI (cfiCond107) ?b13 Frame(CFA, -9)
          CFI (cfiCond107) ?b14 Frame(CFA, -8)
          CFI (cfiCond107) ?b15 Frame(CFA, -7)
          CFI (cfiCond107) ?b8 Frame(CFA, -6)
          CFI (cfiCond107) ?b9 Frame(CFA, -5)
          CFI (cfiCond107) ?b10 Frame(CFA, -4)
          CFI (cfiCond107) ?b11 Frame(CFA, -3)
          CFI (cfiCond107) CFA SP+22
          CFI Block cfiCond108 Using cfiCommon0
          CFI (cfiCond108) Function ControlByAirLearn_NewWriteInFlash
          CFI (cfiCond108) Conditional ??CrossCallReturnLabel_179, ??CrossCallReturnLabel_14
          CFI (cfiCond108) ?b12 Frame(CFA, -10)
          CFI (cfiCond108) ?b13 Frame(CFA, -9)
          CFI (cfiCond108) ?b14 Frame(CFA, -8)
          CFI (cfiCond108) ?b15 Frame(CFA, -7)
          CFI (cfiCond108) ?b8 Frame(CFA, -6)
          CFI (cfiCond108) ?b9 Frame(CFA, -5)
          CFI (cfiCond108) ?b10 Frame(CFA, -4)
          CFI (cfiCond108) ?b11 Frame(CFA, -3)
          CFI (cfiCond108) CFA SP+20
          CFI Block cfiCond109 Using cfiCommon0
          CFI (cfiCond109) Function WriteKeyOperationInFlash
          CFI (cfiCond109) Conditional ??CrossCallReturnLabel_179, ??CrossCallReturnLabel_15
          CFI (cfiCond109) ?b12 Frame(CFA, -8)
          CFI (cfiCond109) ?b13 Frame(CFA, -7)
          CFI (cfiCond109) ?b8 Frame(CFA, -6)
          CFI (cfiCond109) ?b9 Frame(CFA, -5)
          CFI (cfiCond109) ?b10 Frame(CFA, -4)
          CFI (cfiCond109) ?b11 Frame(CFA, -3)
          CFI (cfiCond109) CFA SP+15
          CFI Block cfiPicker110 Using cfiCommon1
          CFI (cfiPicker110) NoFunction
          CFI (cfiPicker110) Picker
//  827 void WriteKeyOperationInFlash(INT8U ABIO_Line,INT8U ID_NUM)
//  828 {
//  829     FLASH_Unlock(FLASH_MemType_Data);   //解锁Flash
//  830     timer2_delay(1); 
//  831     uclong need_adress;
//  832     if(ABIO_Line == A_LINE1)               //AI_Line1 & AO_Line1 
        LDW       X, #0xa
        LDW       S:?w0, X
        LDW       X, Y
          CFI EndBlock cfiCond106
          CFI EndBlock cfiCond107
          CFI EndBlock cfiCond108
          CFI EndBlock cfiCond109
          CFI EndBlock cfiPicker110
        REQUIRE ??Subroutine90_0
        ;               // Fall through to label ??Subroutine90_0

        SECTION `.far_func.text`:CODE:NOROOT(0)
??Subroutine90_0:
          CFI Block cfiCond111 Using cfiCommon0
          CFI Function Reply_RequestFlashData
          CFI Conditional ??CrossCallReturnLabel_177
          CFI CFA SP+30
          CFI Block cfiCond112 Using cfiCommon0
          CFI (cfiCond112) Function UpdateDatasAdressInFlash
          CFI (cfiCond112) Conditional ??CrossCallReturnLabel_178, ??CrossCallReturnLabel_42
          CFI (cfiCond112) ?b12 Frame(CFA, -10)
          CFI (cfiCond112) ?b13 Frame(CFA, -9)
          CFI (cfiCond112) ?b14 Frame(CFA, -8)
          CFI (cfiCond112) ?b15 Frame(CFA, -7)
          CFI (cfiCond112) ?b8 Frame(CFA, -6)
          CFI (cfiCond112) ?b9 Frame(CFA, -5)
          CFI (cfiCond112) ?b10 Frame(CFA, -4)
          CFI (cfiCond112) ?b11 Frame(CFA, -3)
          CFI (cfiCond112) CFA SP+22
          CFI Block cfiCond113 Using cfiCommon0
          CFI (cfiCond113) Function ReadIdInFlash
          CFI (cfiCond113) Conditional ??CrossCallReturnLabel_178, ??CrossCallReturnLabel_43
          CFI (cfiCond113) ?b10 Frame(CFA, -9)
          CFI (cfiCond113) ?b8 Frame(CFA, -8)
          CFI (cfiCond113) ?b9 Frame(CFA, -7)
          CFI (cfiCond113) ?b12 Frame(CFA, -6)
          CFI (cfiCond113) ?b13 Frame(CFA, -5)
          CFI (cfiCond113) ?b14 Frame(CFA, -4)
          CFI (cfiCond113) ?b15 Frame(CFA, -3)
          CFI (cfiCond113) CFA SP+16
          CFI Block cfiCond114 Using cfiCommon0
          CFI (cfiCond114) Function CommonMode_OperateLine
          CFI (cfiCond114) Conditional ??CrossCallReturnLabel_180, ??CrossCallReturnLabel_50
          CFI (cfiCond114) ?b8 Frame(CFA, -4)
          CFI (cfiCond114) ?b9 Frame(CFA, -3)
          CFI (cfiCond114) CFA SP+11
          CFI Block cfiCond115 Using cfiCommon0
          CFI (cfiCond115) Function UpdateDatasAdressInFlash
          CFI (cfiCond115) Conditional ??CrossCallReturnLabel_180, ??CrossCallReturnLabel_51
          CFI (cfiCond115) ?b12 Frame(CFA, -10)
          CFI (cfiCond115) ?b13 Frame(CFA, -9)
          CFI (cfiCond115) ?b14 Frame(CFA, -8)
          CFI (cfiCond115) ?b15 Frame(CFA, -7)
          CFI (cfiCond115) ?b8 Frame(CFA, -6)
          CFI (cfiCond115) ?b9 Frame(CFA, -5)
          CFI (cfiCond115) ?b10 Frame(CFA, -4)
          CFI (cfiCond115) ?b11 Frame(CFA, -3)
          CFI (cfiCond115) CFA SP+22
          CFI Block cfiCond116 Using cfiCommon0
          CFI (cfiCond116) Function ControlByAirLearn_NewWriteInFlash
          CFI (cfiCond116) Conditional ??CrossCallReturnLabel_179, ??CrossCallReturnLabel_14
          CFI (cfiCond116) ?b12 Frame(CFA, -10)
          CFI (cfiCond116) ?b13 Frame(CFA, -9)
          CFI (cfiCond116) ?b14 Frame(CFA, -8)
          CFI (cfiCond116) ?b15 Frame(CFA, -7)
          CFI (cfiCond116) ?b8 Frame(CFA, -6)
          CFI (cfiCond116) ?b9 Frame(CFA, -5)
          CFI (cfiCond116) ?b10 Frame(CFA, -4)
          CFI (cfiCond116) ?b11 Frame(CFA, -3)
          CFI (cfiCond116) CFA SP+20
          CFI Block cfiCond117 Using cfiCommon0
          CFI (cfiCond117) Function WriteKeyOperationInFlash
          CFI (cfiCond117) Conditional ??CrossCallReturnLabel_179, ??CrossCallReturnLabel_15
          CFI (cfiCond117) ?b12 Frame(CFA, -8)
          CFI (cfiCond117) ?b13 Frame(CFA, -7)
          CFI (cfiCond117) ?b8 Frame(CFA, -6)
          CFI (cfiCond117) ?b9 Frame(CFA, -5)
          CFI (cfiCond117) ?b10 Frame(CFA, -4)
          CFI (cfiCond117) ?b11 Frame(CFA, -3)
          CFI (cfiCond117) CFA SP+15
          CFI Block cfiPicker118 Using cfiCommon1
          CFI (cfiPicker118) NoFunction
          CFI (cfiPicker118) Picker
        CALLF     L:?mul16_x_x_w0
        ADDW      X, #ABIO_Function
        RETF
          CFI EndBlock cfiCond111
          CFI EndBlock cfiCond112
          CFI EndBlock cfiCond113
          CFI EndBlock cfiCond114
          CFI EndBlock cfiCond115
          CFI EndBlock cfiCond116
          CFI EndBlock cfiCond117
          CFI EndBlock cfiPicker118

        SECTION `.far_func.text`:CODE:NOROOT(0)
          CFI Block cfiBlock119 Using cfiCommon0
          CFI Function ControlByAirLearn_NewWriteInFlash
        CODE
ControlByAirLearn_NewWriteInFlash:
        CALLF     L:?push_l2
          CFI ?b11 Frame(CFA, -3)
          CFI ?b10 Frame(CFA, -4)
          CFI ?b9 Frame(CFA, -5)
          CFI ?b8 Frame(CFA, -6)
          CFI CFA SP+7
        CALLF     L:?push_l3
          CFI ?b15 Frame(CFA, -7)
          CFI ?b14 Frame(CFA, -8)
          CFI ?b13 Frame(CFA, -9)
          CFI ?b12 Frame(CFA, -10)
          CFI CFA SP+11
        PUSH      S:?b1
          CFI CFA SP+12
        PUSH      S:?b2
          CFI CFA SP+13
        PUSH      S:?b3
          CFI CFA SP+14
        LD        S:?b14, A
        MOV       S:?b15, S:?b0
        MOV       S:?b8, S:?b4
        MOV       S:?b9, S:?b5
        CALLF     ?Subroutine12
??CrossCallReturnLabel_14:
        CP        A, #0x16
        JRNE      L:??ControlByAirLearn_NewWriteInFlash_0
        ADDW      X, #0x1014
        CALLF     ?Subroutine55
??CrossCallReturnLabel_110:
        CALLF     FLASH_ProgramByte
        LD        A, S:?b14
        LD        [S:?w6.w], A
        CALLF     L:?inc32_l2_l2
        LD        A, S:?b15
        CALLF     ??Subroutine93_0
??CrossCallReturnLabel_192:
        INCW      X
        CALLF     ?Subroutine58
??CrossCallReturnLabel_185:
        LD        A, (0x3,SP)
        CALLF     ??Subroutine93_0
??CrossCallReturnLabel_193:
        ADDW      X, #0x2
        LD        A, (0x3,SP)
        CALLF     ??Subroutine91_0
??CrossCallReturnLabel_183:
        LD        A, (0x2,SP)
        CALLF     ??Subroutine93_0
??CrossCallReturnLabel_194:
        ADDW      X, #0x3
        LD        A, (0x2,SP)
        LD        (X), A
        LD        A, (0x1,SP)
        CALLF     ??Subroutine92_0
??CrossCallReturnLabel_188:
        ADDW      X, #0x4
        JRA       ??ControlByAirLearn_NewWriteInFlash_1
??ControlByAirLearn_NewWriteInFlash_0:
        CP        A, #0x17
        JRNE      L:??ControlByAirLearn_NewWriteInFlash_2
        ADDW      X, #0x1019
        CALLF     ?Subroutine55
??CrossCallReturnLabel_111:
        CALLF     ??Subroutine94_0
??CrossCallReturnLabel_198:
        ADDW      X, #0x5
        LD        A, S:?b14
        CALLF     ??Subroutine91_0
??CrossCallReturnLabel_182:
        LD        A, S:?b15
        CALLF     ??Subroutine93_0
??CrossCallReturnLabel_195:
        ADDW      X, #0x6
        CALLF     ?Subroutine58
??CrossCallReturnLabel_184:
        LD        A, (0x3,SP)
        CALLF     ??Subroutine93_0
??CrossCallReturnLabel_196:
        ADDW      X, #0x7
        LD        A, (0x3,SP)
        CALLF     ??Subroutine91_0
??CrossCallReturnLabel_181:
        LD        A, (0x2,SP)
        CALLF     ??Subroutine93_0
??CrossCallReturnLabel_197:
        ADDW      X, #0x8
        LD        A, (0x2,SP)
        LD        (X), A
        LD        A, (0x1,SP)
        CALLF     ??Subroutine92_0
??CrossCallReturnLabel_189:
        ADDW      X, #0x9
??ControlByAirLearn_NewWriteInFlash_1:
        LD        A, (0x1,SP)
        LD        (X), A
??ControlByAirLearn_NewWriteInFlash_2:
        CALLF     ?Subroutine52
??CrossCallReturnLabel_100:
        ADD       SP, #0x3
          CFI CFA SP+11
        JPF       L:?epilogue_l2_l3
          CFI EndBlock cfiBlock119

        SECTION `.far_func.text`:CODE:NOROOT(0)
?Subroutine58:
          CFI Block cfiCond120 Using cfiCommon0
          CFI Function ControlByAirLearn_NewWriteInFlash
          CFI Conditional ??CrossCallReturnLabel_185
          CFI ?b12 Frame(CFA, -10)
          CFI ?b13 Frame(CFA, -9)
          CFI ?b14 Frame(CFA, -8)
          CFI ?b15 Frame(CFA, -7)
          CFI ?b8 Frame(CFA, -6)
          CFI ?b9 Frame(CFA, -5)
          CFI ?b10 Frame(CFA, -4)
          CFI ?b11 Frame(CFA, -3)
          CFI CFA SP+17
          CFI Block cfiCond121 Using cfiCommon0
          CFI (cfiCond121) Function ControlByAirLearn_NewWriteInFlash
          CFI (cfiCond121) Conditional ??CrossCallReturnLabel_184
          CFI (cfiCond121) ?b12 Frame(CFA, -10)
          CFI (cfiCond121) ?b13 Frame(CFA, -9)
          CFI (cfiCond121) ?b14 Frame(CFA, -8)
          CFI (cfiCond121) ?b15 Frame(CFA, -7)
          CFI (cfiCond121) ?b8 Frame(CFA, -6)
          CFI (cfiCond121) ?b9 Frame(CFA, -5)
          CFI (cfiCond121) ?b10 Frame(CFA, -4)
          CFI (cfiCond121) ?b11 Frame(CFA, -3)
          CFI (cfiCond121) CFA SP+17
          CFI Block cfiPicker122 Using cfiCommon1
          CFI (cfiPicker122) NoFunction
          CFI (cfiPicker122) Picker
        LD        A, S:?b15
          CFI EndBlock cfiCond120
          CFI EndBlock cfiCond121
          CFI EndBlock cfiPicker122
        REQUIRE ??Subroutine91_0
        ;               // Fall through to label ??Subroutine91_0

        SECTION `.far_func.text`:CODE:NOROOT(0)
??Subroutine91_0:
          CFI Block cfiCond123 Using cfiCommon0
          CFI Function ControlByAirLearn_NewWriteInFlash
          CFI Conditional ??CrossCallReturnLabel_183
          CFI ?b12 Frame(CFA, -10)
          CFI ?b13 Frame(CFA, -9)
          CFI ?b14 Frame(CFA, -8)
          CFI ?b15 Frame(CFA, -7)
          CFI ?b8 Frame(CFA, -6)
          CFI ?b9 Frame(CFA, -5)
          CFI ?b10 Frame(CFA, -4)
          CFI ?b11 Frame(CFA, -3)
          CFI CFA SP+17
          CFI Block cfiCond124 Using cfiCommon0
          CFI (cfiCond124) Function ControlByAirLearn_NewWriteInFlash
          CFI (cfiCond124) Conditional ??CrossCallReturnLabel_182
          CFI (cfiCond124) ?b12 Frame(CFA, -10)
          CFI (cfiCond124) ?b13 Frame(CFA, -9)
          CFI (cfiCond124) ?b14 Frame(CFA, -8)
          CFI (cfiCond124) ?b15 Frame(CFA, -7)
          CFI (cfiCond124) ?b8 Frame(CFA, -6)
          CFI (cfiCond124) ?b9 Frame(CFA, -5)
          CFI (cfiCond124) ?b10 Frame(CFA, -4)
          CFI (cfiCond124) ?b11 Frame(CFA, -3)
          CFI (cfiCond124) CFA SP+17
          CFI Block cfiCond125 Using cfiCommon0
          CFI (cfiCond125) Function ControlByAirLearn_NewWriteInFlash
          CFI (cfiCond125) Conditional ??CrossCallReturnLabel_181
          CFI (cfiCond125) ?b12 Frame(CFA, -10)
          CFI (cfiCond125) ?b13 Frame(CFA, -9)
          CFI (cfiCond125) ?b14 Frame(CFA, -8)
          CFI (cfiCond125) ?b15 Frame(CFA, -7)
          CFI (cfiCond125) ?b8 Frame(CFA, -6)
          CFI (cfiCond125) ?b9 Frame(CFA, -5)
          CFI (cfiCond125) ?b10 Frame(CFA, -4)
          CFI (cfiCond125) ?b11 Frame(CFA, -3)
          CFI (cfiCond125) CFA SP+17
          CFI Block cfiCond126 Using cfiCommon0
          CFI (cfiCond126) Function ControlByAirLearn_NewWriteInFlash
          CFI (cfiCond126) Conditional ??CrossCallReturnLabel_185
          CFI (cfiCond126) ?b12 Frame(CFA, -10)
          CFI (cfiCond126) ?b13 Frame(CFA, -9)
          CFI (cfiCond126) ?b14 Frame(CFA, -8)
          CFI (cfiCond126) ?b15 Frame(CFA, -7)
          CFI (cfiCond126) ?b8 Frame(CFA, -6)
          CFI (cfiCond126) ?b9 Frame(CFA, -5)
          CFI (cfiCond126) ?b10 Frame(CFA, -4)
          CFI (cfiCond126) ?b11 Frame(CFA, -3)
          CFI (cfiCond126) CFA SP+17
          CFI Block cfiCond127 Using cfiCommon0
          CFI (cfiCond127) Function ControlByAirLearn_NewWriteInFlash
          CFI (cfiCond127) Conditional ??CrossCallReturnLabel_184
          CFI (cfiCond127) ?b12 Frame(CFA, -10)
          CFI (cfiCond127) ?b13 Frame(CFA, -9)
          CFI (cfiCond127) ?b14 Frame(CFA, -8)
          CFI (cfiCond127) ?b15 Frame(CFA, -7)
          CFI (cfiCond127) ?b8 Frame(CFA, -6)
          CFI (cfiCond127) ?b9 Frame(CFA, -5)
          CFI (cfiCond127) ?b10 Frame(CFA, -4)
          CFI (cfiCond127) ?b11 Frame(CFA, -3)
          CFI (cfiCond127) CFA SP+17
          CFI Block cfiPicker128 Using cfiCommon1
          CFI (cfiPicker128) NoFunction
          CFI (cfiPicker128) Picker
        LD        (X), A
        JPF       L:?inc32_l2_l2
          CFI EndBlock cfiCond123
          CFI EndBlock cfiCond124
          CFI EndBlock cfiCond125
          CFI EndBlock cfiCond126
          CFI EndBlock cfiCond127
          CFI EndBlock cfiPicker128

        SECTION `.far_func.text`:CODE:NOROOT(0)
?Subroutine55:
          CFI Block cfiCond129 Using cfiCommon0
          CFI Function ControlByAirLearn_NewWriteInFlash
          CFI Conditional ??CrossCallReturnLabel_110
          CFI ?b12 Frame(CFA, -10)
          CFI ?b13 Frame(CFA, -9)
          CFI ?b14 Frame(CFA, -8)
          CFI ?b15 Frame(CFA, -7)
          CFI ?b8 Frame(CFA, -6)
          CFI ?b9 Frame(CFA, -5)
          CFI ?b10 Frame(CFA, -4)
          CFI ?b11 Frame(CFA, -3)
          CFI CFA SP+17
          CFI Block cfiCond130 Using cfiCommon0
          CFI (cfiCond130) Function ControlByAirLearn_NewWriteInFlash
          CFI (cfiCond130) Conditional ??CrossCallReturnLabel_111
          CFI (cfiCond130) ?b12 Frame(CFA, -10)
          CFI (cfiCond130) ?b13 Frame(CFA, -9)
          CFI (cfiCond130) ?b14 Frame(CFA, -8)
          CFI (cfiCond130) ?b15 Frame(CFA, -7)
          CFI (cfiCond130) ?b8 Frame(CFA, -6)
          CFI (cfiCond130) ?b9 Frame(CFA, -5)
          CFI (cfiCond130) ?b10 Frame(CFA, -4)
          CFI (cfiCond130) ?b11 Frame(CFA, -3)
          CFI (cfiCond130) CFA SP+17
          CFI Block cfiPicker131 Using cfiCommon1
          CFI (cfiPicker131) NoFunction
          CFI (cfiPicker131) Picker
        CALLF     ?Subroutine79
??CrossCallReturnLabel_142:
        LD        A, S:?b14
        RETF
          CFI EndBlock cfiCond129
          CFI EndBlock cfiCond130
          CFI EndBlock cfiPicker131

        SECTION `.far_func.text`:CODE:NOROOT(0)
          CFI Block cfiBlock132 Using cfiCommon0
          CFI Function WriteKeyOperationInFlash
        CODE
WriteKeyOperationInFlash:
        CALLF     L:?push_l2
          CFI ?b11 Frame(CFA, -3)
          CFI ?b10 Frame(CFA, -4)
          CFI ?b9 Frame(CFA, -5)
          CFI ?b8 Frame(CFA, -6)
          CFI CFA SP+7
        CALLF     L:?push_w6
          CFI ?b13 Frame(CFA, -7)
          CFI ?b12 Frame(CFA, -8)
          CFI CFA SP+9
        LD        S:?b8, A
        MOV       S:?b9, S:?b0
        CALLF     ?Subroutine12
??CrossCallReturnLabel_15:
        CP        A, #0x11
        JRNE      L:??WriteKeyOperationInFlash_0
        ADDW      X, #0x1014
        CALLF     ?Subroutine56
??CrossCallReturnLabel_112:
        CALLF     FLASH_ProgramByte
        LD        A, #0x10
        LD        [S:?w6.w], A
        LD        A, #0x30
        CALLF     ??Subroutine92_0
??CrossCallReturnLabel_190:
        INCW      X
        JRA       ??WriteKeyOperationInFlash_1
??WriteKeyOperationInFlash_0:
        CP        A, #0x12
        JRNE      L:??WriteKeyOperationInFlash_2
        ADDW      X, #0x1016
        CALLF     ?Subroutine57
??CrossCallReturnLabel_114:
        CALLF     ??Subroutine94_0
??CrossCallReturnLabel_199:
        ADDW      X, #0x2
        CALLF     ?Subroutine51
??CrossCallReturnLabel_186:
        ADDW      X, #0x3
        JRA       ??WriteKeyOperationInFlash_3
??WriteKeyOperationInFlash_2:
        CP        A, #0x18
        JRNE      L:??WriteKeyOperationInFlash_4
        LD        A, #0x20
        ADDW      X, #0x1018
        CALLF     L:?sext32_l0_x
        CALLF     ??Subroutine94_0
??CrossCallReturnLabel_200:
        ADDW      X, #0x4
        JRA       ??WriteKeyOperationInFlash_5
??WriteKeyOperationInFlash_4:
        CP        A, #0x13
        JRNE      L:??WriteKeyOperationInFlash_6
        ADDW      X, #0x1019
        CALLF     ?Subroutine56
??CrossCallReturnLabel_113:
        CALLF     ??Subroutine94_0
??CrossCallReturnLabel_201:
        ADDW      X, #0x5
        LD        A, #0x10
        LD        (X), A
        LD        A, #0x30
        CALLF     ??Subroutine92_0
??CrossCallReturnLabel_191:
        ADDW      X, #0x6
??WriteKeyOperationInFlash_1:
        LD        A, #0x30
        JRA       ??WriteKeyOperationInFlash_7
??WriteKeyOperationInFlash_6:
        CP        A, #0x14
        JRNE      L:??WriteKeyOperationInFlash_8
        ADDW      X, #0x101b
        CALLF     ?Subroutine57
??CrossCallReturnLabel_115:
        CALLF     ??Subroutine94_0
??CrossCallReturnLabel_202:
        ADDW      X, #0x7
        CALLF     ?Subroutine51
??CrossCallReturnLabel_187:
        ADDW      X, #0x8
??WriteKeyOperationInFlash_3:
        LD        A, #0x70
        JRA       ??WriteKeyOperationInFlash_7
??WriteKeyOperationInFlash_8:
        CP        A, #0x19
        JRNE      L:??WriteKeyOperationInFlash_9
        LD        A, #0x20
        ADDW      X, #0x101d
        CALLF     L:?sext32_l0_x
        CALLF     ??Subroutine94_0
??CrossCallReturnLabel_203:
        ADDW      X, #0x9
??WriteKeyOperationInFlash_5:
        LD        A, #0x20
??WriteKeyOperationInFlash_7:
        LD        (X), A
??WriteKeyOperationInFlash_9:
        CALLF     ?Subroutine52
??CrossCallReturnLabel_99:
        JPF       L:?epilogue_l2_w6
          CFI EndBlock cfiBlock132

        SECTION `.far_func.text`:CODE:NOROOT(0)
?Subroutine57:
          CFI Block cfiCond133 Using cfiCommon0
          CFI Function WriteKeyOperationInFlash
          CFI Conditional ??CrossCallReturnLabel_114
          CFI ?b12 Frame(CFA, -8)
          CFI ?b13 Frame(CFA, -7)
          CFI ?b8 Frame(CFA, -6)
          CFI ?b9 Frame(CFA, -5)
          CFI ?b10 Frame(CFA, -4)
          CFI ?b11 Frame(CFA, -3)
          CFI CFA SP+12
          CFI Block cfiCond134 Using cfiCommon0
          CFI (cfiCond134) Function WriteKeyOperationInFlash
          CFI (cfiCond134) Conditional ??CrossCallReturnLabel_115
          CFI (cfiCond134) ?b12 Frame(CFA, -8)
          CFI (cfiCond134) ?b13 Frame(CFA, -7)
          CFI (cfiCond134) ?b8 Frame(CFA, -6)
          CFI (cfiCond134) ?b9 Frame(CFA, -5)
          CFI (cfiCond134) ?b10 Frame(CFA, -4)
          CFI (cfiCond134) ?b11 Frame(CFA, -3)
          CFI (cfiCond134) CFA SP+12
          CFI Block cfiPicker135 Using cfiCommon1
          CFI (cfiPicker135) NoFunction
          CFI (cfiPicker135) Picker
        CALLF     ?Subroutine79
??CrossCallReturnLabel_144:
        LD        A, #0x50
        RETF
          CFI EndBlock cfiCond133
          CFI EndBlock cfiCond134
          CFI EndBlock cfiPicker135

        SECTION `.far_func.text`:CODE:NOROOT(0)
?Subroutine79:
          CFI Block cfiCond136 Using cfiCommon0
          CFI Function UpdateDatasAdressInFlash
          CFI Conditional ??CrossCallReturnLabel_140
          CFI ?b12 Frame(CFA, -10)
          CFI ?b13 Frame(CFA, -9)
          CFI ?b14 Frame(CFA, -8)
          CFI ?b15 Frame(CFA, -7)
          CFI ?b8 Frame(CFA, -6)
          CFI ?b9 Frame(CFA, -5)
          CFI ?b10 Frame(CFA, -4)
          CFI ?b11 Frame(CFA, -3)
          CFI CFA SP+19
          CFI Block cfiCond137 Using cfiCommon0
          CFI (cfiCond137) Function UpdateDatasAdressInFlash
          CFI (cfiCond137) Conditional ??CrossCallReturnLabel_141
          CFI (cfiCond137) ?b12 Frame(CFA, -10)
          CFI (cfiCond137) ?b13 Frame(CFA, -9)
          CFI (cfiCond137) ?b14 Frame(CFA, -8)
          CFI (cfiCond137) ?b15 Frame(CFA, -7)
          CFI (cfiCond137) ?b8 Frame(CFA, -6)
          CFI (cfiCond137) ?b9 Frame(CFA, -5)
          CFI (cfiCond137) ?b10 Frame(CFA, -4)
          CFI (cfiCond137) ?b11 Frame(CFA, -3)
          CFI (cfiCond137) CFA SP+19
          CFI Block cfiCond138 Using cfiCommon0
          CFI (cfiCond138) Function ControlByAirLearn_NewWriteInFlash
          CFI (cfiCond138) Conditional ??CrossCallReturnLabel_142, ??CrossCallReturnLabel_110
          CFI (cfiCond138) ?b12 Frame(CFA, -10)
          CFI (cfiCond138) ?b13 Frame(CFA, -9)
          CFI (cfiCond138) ?b14 Frame(CFA, -8)
          CFI (cfiCond138) ?b15 Frame(CFA, -7)
          CFI (cfiCond138) ?b8 Frame(CFA, -6)
          CFI (cfiCond138) ?b9 Frame(CFA, -5)
          CFI (cfiCond138) ?b10 Frame(CFA, -4)
          CFI (cfiCond138) ?b11 Frame(CFA, -3)
          CFI (cfiCond138) CFA SP+20
          CFI Block cfiCond139 Using cfiCommon0
          CFI (cfiCond139) Function ControlByAirLearn_NewWriteInFlash
          CFI (cfiCond139) Conditional ??CrossCallReturnLabel_142, ??CrossCallReturnLabel_111
          CFI (cfiCond139) ?b12 Frame(CFA, -10)
          CFI (cfiCond139) ?b13 Frame(CFA, -9)
          CFI (cfiCond139) ?b14 Frame(CFA, -8)
          CFI (cfiCond139) ?b15 Frame(CFA, -7)
          CFI (cfiCond139) ?b8 Frame(CFA, -6)
          CFI (cfiCond139) ?b9 Frame(CFA, -5)
          CFI (cfiCond139) ?b10 Frame(CFA, -4)
          CFI (cfiCond139) ?b11 Frame(CFA, -3)
          CFI (cfiCond139) CFA SP+20
          CFI Block cfiCond140 Using cfiCommon0
          CFI (cfiCond140) Function WriteKeyOperationInFlash
          CFI (cfiCond140) Conditional ??CrossCallReturnLabel_144, ??CrossCallReturnLabel_114
          CFI (cfiCond140) ?b12 Frame(CFA, -8)
          CFI (cfiCond140) ?b13 Frame(CFA, -7)
          CFI (cfiCond140) ?b8 Frame(CFA, -6)
          CFI (cfiCond140) ?b9 Frame(CFA, -5)
          CFI (cfiCond140) ?b10 Frame(CFA, -4)
          CFI (cfiCond140) ?b11 Frame(CFA, -3)
          CFI (cfiCond140) CFA SP+15
          CFI Block cfiCond141 Using cfiCommon0
          CFI (cfiCond141) Function WriteKeyOperationInFlash
          CFI (cfiCond141) Conditional ??CrossCallReturnLabel_144, ??CrossCallReturnLabel_115
          CFI (cfiCond141) ?b12 Frame(CFA, -8)
          CFI (cfiCond141) ?b13 Frame(CFA, -7)
          CFI (cfiCond141) ?b8 Frame(CFA, -6)
          CFI (cfiCond141) ?b9 Frame(CFA, -5)
          CFI (cfiCond141) ?b10 Frame(CFA, -4)
          CFI (cfiCond141) ?b11 Frame(CFA, -3)
          CFI (cfiCond141) CFA SP+15
          CFI Block cfiCond142 Using cfiCommon0
          CFI (cfiCond142) Function WriteKeyOperationInFlash
          CFI (cfiCond142) Conditional ??CrossCallReturnLabel_143, ??CrossCallReturnLabel_112
          CFI (cfiCond142) ?b12 Frame(CFA, -8)
          CFI (cfiCond142) ?b13 Frame(CFA, -7)
          CFI (cfiCond142) ?b8 Frame(CFA, -6)
          CFI (cfiCond142) ?b9 Frame(CFA, -5)
          CFI (cfiCond142) ?b10 Frame(CFA, -4)
          CFI (cfiCond142) ?b11 Frame(CFA, -3)
          CFI (cfiCond142) CFA SP+15
          CFI Block cfiCond143 Using cfiCommon0
          CFI (cfiCond143) Function WriteKeyOperationInFlash
          CFI (cfiCond143) Conditional ??CrossCallReturnLabel_143, ??CrossCallReturnLabel_113
          CFI (cfiCond143) ?b12 Frame(CFA, -8)
          CFI (cfiCond143) ?b13 Frame(CFA, -7)
          CFI (cfiCond143) ?b8 Frame(CFA, -6)
          CFI (cfiCond143) ?b9 Frame(CFA, -5)
          CFI (cfiCond143) ?b10 Frame(CFA, -4)
          CFI (cfiCond143) ?b11 Frame(CFA, -3)
          CFI (cfiCond143) CFA SP+15
          CFI Block cfiPicker144 Using cfiCommon1
          CFI (cfiPicker144) NoFunction
          CFI (cfiPicker144) Picker
        CALLF     L:?sext32_l0_x
        JPF       L:?mov_l2_l0
          CFI EndBlock cfiCond136
          CFI EndBlock cfiCond137
          CFI EndBlock cfiCond138
          CFI EndBlock cfiCond139
          CFI EndBlock cfiCond140
          CFI EndBlock cfiCond141
          CFI EndBlock cfiCond142
          CFI EndBlock cfiCond143
          CFI EndBlock cfiPicker144

        SECTION `.far_func.text`:CODE:NOROOT(0)
?Subroutine56:
          CFI Block cfiCond145 Using cfiCommon0
          CFI Function WriteKeyOperationInFlash
          CFI Conditional ??CrossCallReturnLabel_112
          CFI ?b12 Frame(CFA, -8)
          CFI ?b13 Frame(CFA, -7)
          CFI ?b8 Frame(CFA, -6)
          CFI ?b9 Frame(CFA, -5)
          CFI ?b10 Frame(CFA, -4)
          CFI ?b11 Frame(CFA, -3)
          CFI CFA SP+12
          CFI Block cfiCond146 Using cfiCommon0
          CFI (cfiCond146) Function WriteKeyOperationInFlash
          CFI (cfiCond146) Conditional ??CrossCallReturnLabel_113
          CFI (cfiCond146) ?b12 Frame(CFA, -8)
          CFI (cfiCond146) ?b13 Frame(CFA, -7)
          CFI (cfiCond146) ?b8 Frame(CFA, -6)
          CFI (cfiCond146) ?b9 Frame(CFA, -5)
          CFI (cfiCond146) ?b10 Frame(CFA, -4)
          CFI (cfiCond146) ?b11 Frame(CFA, -3)
          CFI (cfiCond146) CFA SP+12
          CFI Block cfiPicker147 Using cfiCommon1
          CFI (cfiPicker147) NoFunction
          CFI (cfiPicker147) Picker
        CALLF     ?Subroutine79
??CrossCallReturnLabel_143:
        LD        A, #0x10
        RETF
          CFI EndBlock cfiCond145
          CFI EndBlock cfiCond146
          CFI EndBlock cfiPicker147

        SECTION `.far_func.text`:CODE:NOROOT(0)
?Subroutine51:
          CFI Block cfiCond148 Using cfiCommon0
          CFI Function WriteKeyOperationInFlash
          CFI Conditional ??CrossCallReturnLabel_186
          CFI ?b12 Frame(CFA, -8)
          CFI ?b13 Frame(CFA, -7)
          CFI ?b8 Frame(CFA, -6)
          CFI ?b9 Frame(CFA, -5)
          CFI ?b10 Frame(CFA, -4)
          CFI ?b11 Frame(CFA, -3)
          CFI CFA SP+12
          CFI Block cfiCond149 Using cfiCommon0
          CFI (cfiCond149) Function WriteKeyOperationInFlash
          CFI (cfiCond149) Conditional ??CrossCallReturnLabel_187
          CFI (cfiCond149) ?b12 Frame(CFA, -8)
          CFI (cfiCond149) ?b13 Frame(CFA, -7)
          CFI (cfiCond149) ?b8 Frame(CFA, -6)
          CFI (cfiCond149) ?b9 Frame(CFA, -5)
          CFI (cfiCond149) ?b10 Frame(CFA, -4)
          CFI (cfiCond149) ?b11 Frame(CFA, -3)
          CFI (cfiCond149) CFA SP+12
          CFI Block cfiPicker150 Using cfiCommon1
          CFI (cfiPicker150) NoFunction
          CFI (cfiPicker150) Picker
        LD        A, #0x50
        LD        (X), A
        LD        A, #0x70
          CFI EndBlock cfiCond148
          CFI EndBlock cfiCond149
          CFI EndBlock cfiPicker150
        REQUIRE ??Subroutine92_0
        ;               // Fall through to label ??Subroutine92_0

        SECTION `.far_func.text`:CODE:NOROOT(0)
??Subroutine92_0:
          CFI Block cfiCond151 Using cfiCommon0
          CFI Function ControlByAirLearn_NewWriteInFlash
          CFI Conditional ??CrossCallReturnLabel_188
          CFI ?b12 Frame(CFA, -10)
          CFI ?b13 Frame(CFA, -9)
          CFI ?b14 Frame(CFA, -8)
          CFI ?b15 Frame(CFA, -7)
          CFI ?b8 Frame(CFA, -6)
          CFI ?b9 Frame(CFA, -5)
          CFI ?b10 Frame(CFA, -4)
          CFI ?b11 Frame(CFA, -3)
          CFI CFA SP+17
          CFI Block cfiCond152 Using cfiCommon0
          CFI (cfiCond152) Function ControlByAirLearn_NewWriteInFlash
          CFI (cfiCond152) Conditional ??CrossCallReturnLabel_189
          CFI (cfiCond152) ?b12 Frame(CFA, -10)
          CFI (cfiCond152) ?b13 Frame(CFA, -9)
          CFI (cfiCond152) ?b14 Frame(CFA, -8)
          CFI (cfiCond152) ?b15 Frame(CFA, -7)
          CFI (cfiCond152) ?b8 Frame(CFA, -6)
          CFI (cfiCond152) ?b9 Frame(CFA, -5)
          CFI (cfiCond152) ?b10 Frame(CFA, -4)
          CFI (cfiCond152) ?b11 Frame(CFA, -3)
          CFI (cfiCond152) CFA SP+17
          CFI Block cfiCond153 Using cfiCommon0
          CFI (cfiCond153) Function WriteKeyOperationInFlash
          CFI (cfiCond153) Conditional ??CrossCallReturnLabel_190
          CFI (cfiCond153) ?b12 Frame(CFA, -8)
          CFI (cfiCond153) ?b13 Frame(CFA, -7)
          CFI (cfiCond153) ?b8 Frame(CFA, -6)
          CFI (cfiCond153) ?b9 Frame(CFA, -5)
          CFI (cfiCond153) ?b10 Frame(CFA, -4)
          CFI (cfiCond153) ?b11 Frame(CFA, -3)
          CFI (cfiCond153) CFA SP+12
          CFI Block cfiCond154 Using cfiCommon0
          CFI (cfiCond154) Function WriteKeyOperationInFlash
          CFI (cfiCond154) Conditional ??CrossCallReturnLabel_191
          CFI (cfiCond154) ?b12 Frame(CFA, -8)
          CFI (cfiCond154) ?b13 Frame(CFA, -7)
          CFI (cfiCond154) ?b8 Frame(CFA, -6)
          CFI (cfiCond154) ?b9 Frame(CFA, -5)
          CFI (cfiCond154) ?b10 Frame(CFA, -4)
          CFI (cfiCond154) ?b11 Frame(CFA, -3)
          CFI (cfiCond154) CFA SP+12
          CFI Block cfiCond155 Using cfiCommon0
          CFI (cfiCond155) Function WriteKeyOperationInFlash
          CFI (cfiCond155) Conditional ??CrossCallReturnLabel_186
          CFI (cfiCond155) ?b12 Frame(CFA, -8)
          CFI (cfiCond155) ?b13 Frame(CFA, -7)
          CFI (cfiCond155) ?b8 Frame(CFA, -6)
          CFI (cfiCond155) ?b9 Frame(CFA, -5)
          CFI (cfiCond155) ?b10 Frame(CFA, -4)
          CFI (cfiCond155) ?b11 Frame(CFA, -3)
          CFI (cfiCond155) CFA SP+12
          CFI Block cfiCond156 Using cfiCommon0
          CFI (cfiCond156) Function WriteKeyOperationInFlash
          CFI (cfiCond156) Conditional ??CrossCallReturnLabel_187
          CFI (cfiCond156) ?b12 Frame(CFA, -8)
          CFI (cfiCond156) ?b13 Frame(CFA, -7)
          CFI (cfiCond156) ?b8 Frame(CFA, -6)
          CFI (cfiCond156) ?b9 Frame(CFA, -5)
          CFI (cfiCond156) ?b10 Frame(CFA, -4)
          CFI (cfiCond156) ?b11 Frame(CFA, -3)
          CFI (cfiCond156) CFA SP+12
          CFI Block cfiPicker157 Using cfiCommon1
          CFI (cfiPicker157) NoFunction
          CFI (cfiPicker157) Picker
        CALLF     L:?inc32_l2_l2
          CFI EndBlock cfiCond151
          CFI EndBlock cfiCond152
          CFI EndBlock cfiCond153
          CFI EndBlock cfiCond154
          CFI EndBlock cfiCond155
          CFI EndBlock cfiCond156
          CFI EndBlock cfiPicker157
        REQUIRE ??Subroutine93_0
        ;               // Fall through to label ??Subroutine93_0

        SECTION `.far_func.text`:CODE:NOROOT(0)
??Subroutine93_0:
          CFI Block cfiCond158 Using cfiCommon0
          CFI Function ControlByAirLearn_NewWriteInFlash
          CFI Conditional ??CrossCallReturnLabel_192
          CFI ?b12 Frame(CFA, -10)
          CFI ?b13 Frame(CFA, -9)
          CFI ?b14 Frame(CFA, -8)
          CFI ?b15 Frame(CFA, -7)
          CFI ?b8 Frame(CFA, -6)
          CFI ?b9 Frame(CFA, -5)
          CFI ?b10 Frame(CFA, -4)
          CFI ?b11 Frame(CFA, -3)
          CFI CFA SP+17
          CFI Block cfiCond159 Using cfiCommon0
          CFI (cfiCond159) Function ControlByAirLearn_NewWriteInFlash
          CFI (cfiCond159) Conditional ??CrossCallReturnLabel_193
          CFI (cfiCond159) ?b12 Frame(CFA, -10)
          CFI (cfiCond159) ?b13 Frame(CFA, -9)
          CFI (cfiCond159) ?b14 Frame(CFA, -8)
          CFI (cfiCond159) ?b15 Frame(CFA, -7)
          CFI (cfiCond159) ?b8 Frame(CFA, -6)
          CFI (cfiCond159) ?b9 Frame(CFA, -5)
          CFI (cfiCond159) ?b10 Frame(CFA, -4)
          CFI (cfiCond159) ?b11 Frame(CFA, -3)
          CFI (cfiCond159) CFA SP+17
          CFI Block cfiCond160 Using cfiCommon0
          CFI (cfiCond160) Function ControlByAirLearn_NewWriteInFlash
          CFI (cfiCond160) Conditional ??CrossCallReturnLabel_194
          CFI (cfiCond160) ?b12 Frame(CFA, -10)
          CFI (cfiCond160) ?b13 Frame(CFA, -9)
          CFI (cfiCond160) ?b14 Frame(CFA, -8)
          CFI (cfiCond160) ?b15 Frame(CFA, -7)
          CFI (cfiCond160) ?b8 Frame(CFA, -6)
          CFI (cfiCond160) ?b9 Frame(CFA, -5)
          CFI (cfiCond160) ?b10 Frame(CFA, -4)
          CFI (cfiCond160) ?b11 Frame(CFA, -3)
          CFI (cfiCond160) CFA SP+17
          CFI Block cfiCond161 Using cfiCommon0
          CFI (cfiCond161) Function ControlByAirLearn_NewWriteInFlash
          CFI (cfiCond161) Conditional ??CrossCallReturnLabel_195
          CFI (cfiCond161) ?b12 Frame(CFA, -10)
          CFI (cfiCond161) ?b13 Frame(CFA, -9)
          CFI (cfiCond161) ?b14 Frame(CFA, -8)
          CFI (cfiCond161) ?b15 Frame(CFA, -7)
          CFI (cfiCond161) ?b8 Frame(CFA, -6)
          CFI (cfiCond161) ?b9 Frame(CFA, -5)
          CFI (cfiCond161) ?b10 Frame(CFA, -4)
          CFI (cfiCond161) ?b11 Frame(CFA, -3)
          CFI (cfiCond161) CFA SP+17
          CFI Block cfiCond162 Using cfiCommon0
          CFI (cfiCond162) Function ControlByAirLearn_NewWriteInFlash
          CFI (cfiCond162) Conditional ??CrossCallReturnLabel_196
          CFI (cfiCond162) ?b12 Frame(CFA, -10)
          CFI (cfiCond162) ?b13 Frame(CFA, -9)
          CFI (cfiCond162) ?b14 Frame(CFA, -8)
          CFI (cfiCond162) ?b15 Frame(CFA, -7)
          CFI (cfiCond162) ?b8 Frame(CFA, -6)
          CFI (cfiCond162) ?b9 Frame(CFA, -5)
          CFI (cfiCond162) ?b10 Frame(CFA, -4)
          CFI (cfiCond162) ?b11 Frame(CFA, -3)
          CFI (cfiCond162) CFA SP+17
          CFI Block cfiCond163 Using cfiCommon0
          CFI (cfiCond163) Function ControlByAirLearn_NewWriteInFlash
          CFI (cfiCond163) Conditional ??CrossCallReturnLabel_197
          CFI (cfiCond163) ?b12 Frame(CFA, -10)
          CFI (cfiCond163) ?b13 Frame(CFA, -9)
          CFI (cfiCond163) ?b14 Frame(CFA, -8)
          CFI (cfiCond163) ?b15 Frame(CFA, -7)
          CFI (cfiCond163) ?b8 Frame(CFA, -6)
          CFI (cfiCond163) ?b9 Frame(CFA, -5)
          CFI (cfiCond163) ?b10 Frame(CFA, -4)
          CFI (cfiCond163) ?b11 Frame(CFA, -3)
          CFI (cfiCond163) CFA SP+17
          CFI Block cfiCond164 Using cfiCommon0
          CFI (cfiCond164) Function ControlByAirLearn_NewWriteInFlash
          CFI (cfiCond164) Conditional ??CrossCallReturnLabel_188
          CFI (cfiCond164) ?b12 Frame(CFA, -10)
          CFI (cfiCond164) ?b13 Frame(CFA, -9)
          CFI (cfiCond164) ?b14 Frame(CFA, -8)
          CFI (cfiCond164) ?b15 Frame(CFA, -7)
          CFI (cfiCond164) ?b8 Frame(CFA, -6)
          CFI (cfiCond164) ?b9 Frame(CFA, -5)
          CFI (cfiCond164) ?b10 Frame(CFA, -4)
          CFI (cfiCond164) ?b11 Frame(CFA, -3)
          CFI (cfiCond164) CFA SP+17
          CFI Block cfiCond165 Using cfiCommon0
          CFI (cfiCond165) Function ControlByAirLearn_NewWriteInFlash
          CFI (cfiCond165) Conditional ??CrossCallReturnLabel_189
          CFI (cfiCond165) ?b12 Frame(CFA, -10)
          CFI (cfiCond165) ?b13 Frame(CFA, -9)
          CFI (cfiCond165) ?b14 Frame(CFA, -8)
          CFI (cfiCond165) ?b15 Frame(CFA, -7)
          CFI (cfiCond165) ?b8 Frame(CFA, -6)
          CFI (cfiCond165) ?b9 Frame(CFA, -5)
          CFI (cfiCond165) ?b10 Frame(CFA, -4)
          CFI (cfiCond165) ?b11 Frame(CFA, -3)
          CFI (cfiCond165) CFA SP+17
          CFI Block cfiCond166 Using cfiCommon0
          CFI (cfiCond166) Function WriteKeyOperationInFlash
          CFI (cfiCond166) Conditional ??CrossCallReturnLabel_190
          CFI (cfiCond166) ?b12 Frame(CFA, -8)
          CFI (cfiCond166) ?b13 Frame(CFA, -7)
          CFI (cfiCond166) ?b8 Frame(CFA, -6)
          CFI (cfiCond166) ?b9 Frame(CFA, -5)
          CFI (cfiCond166) ?b10 Frame(CFA, -4)
          CFI (cfiCond166) ?b11 Frame(CFA, -3)
          CFI (cfiCond166) CFA SP+12
          CFI Block cfiCond167 Using cfiCommon0
          CFI (cfiCond167) Function WriteKeyOperationInFlash
          CFI (cfiCond167) Conditional ??CrossCallReturnLabel_191
          CFI (cfiCond167) ?b12 Frame(CFA, -8)
          CFI (cfiCond167) ?b13 Frame(CFA, -7)
          CFI (cfiCond167) ?b8 Frame(CFA, -6)
          CFI (cfiCond167) ?b9 Frame(CFA, -5)
          CFI (cfiCond167) ?b10 Frame(CFA, -4)
          CFI (cfiCond167) ?b11 Frame(CFA, -3)
          CFI (cfiCond167) CFA SP+12
          CFI Block cfiCond168 Using cfiCommon0
          CFI (cfiCond168) Function WriteKeyOperationInFlash
          CFI (cfiCond168) Conditional ??CrossCallReturnLabel_186
          CFI (cfiCond168) ?b12 Frame(CFA, -8)
          CFI (cfiCond168) ?b13 Frame(CFA, -7)
          CFI (cfiCond168) ?b8 Frame(CFA, -6)
          CFI (cfiCond168) ?b9 Frame(CFA, -5)
          CFI (cfiCond168) ?b10 Frame(CFA, -4)
          CFI (cfiCond168) ?b11 Frame(CFA, -3)
          CFI (cfiCond168) CFA SP+12
          CFI Block cfiCond169 Using cfiCommon0
          CFI (cfiCond169) Function WriteKeyOperationInFlash
          CFI (cfiCond169) Conditional ??CrossCallReturnLabel_187
          CFI (cfiCond169) ?b12 Frame(CFA, -8)
          CFI (cfiCond169) ?b13 Frame(CFA, -7)
          CFI (cfiCond169) ?b8 Frame(CFA, -6)
          CFI (cfiCond169) ?b9 Frame(CFA, -5)
          CFI (cfiCond169) ?b10 Frame(CFA, -4)
          CFI (cfiCond169) ?b11 Frame(CFA, -3)
          CFI (cfiCond169) CFA SP+12
          CFI Block cfiPicker170 Using cfiCommon1
          CFI (cfiPicker170) NoFunction
          CFI (cfiPicker170) Picker
        CALLF     L:?mov_l0_l2
          CFI EndBlock cfiCond158
          CFI EndBlock cfiCond159
          CFI EndBlock cfiCond160
          CFI EndBlock cfiCond161
          CFI EndBlock cfiCond162
          CFI EndBlock cfiCond163
          CFI EndBlock cfiCond164
          CFI EndBlock cfiCond165
          CFI EndBlock cfiCond166
          CFI EndBlock cfiCond167
          CFI EndBlock cfiCond168
          CFI EndBlock cfiCond169
          CFI EndBlock cfiPicker170
        REQUIRE ??Subroutine94_0
        ;               // Fall through to label ??Subroutine94_0

        SECTION `.far_func.text`:CODE:NOROOT(0)
??Subroutine94_0:
          CFI Block cfiCond171 Using cfiCommon0
          CFI Function ControlByAirLearn_NewWriteInFlash
          CFI Conditional ??CrossCallReturnLabel_198
          CFI ?b12 Frame(CFA, -10)
          CFI ?b13 Frame(CFA, -9)
          CFI ?b14 Frame(CFA, -8)
          CFI ?b15 Frame(CFA, -7)
          CFI ?b8 Frame(CFA, -6)
          CFI ?b9 Frame(CFA, -5)
          CFI ?b10 Frame(CFA, -4)
          CFI ?b11 Frame(CFA, -3)
          CFI CFA SP+17
          CFI Block cfiCond172 Using cfiCommon0
          CFI (cfiCond172) Function WriteKeyOperationInFlash
          CFI (cfiCond172) Conditional ??CrossCallReturnLabel_199
          CFI (cfiCond172) ?b12 Frame(CFA, -8)
          CFI (cfiCond172) ?b13 Frame(CFA, -7)
          CFI (cfiCond172) ?b8 Frame(CFA, -6)
          CFI (cfiCond172) ?b9 Frame(CFA, -5)
          CFI (cfiCond172) ?b10 Frame(CFA, -4)
          CFI (cfiCond172) ?b11 Frame(CFA, -3)
          CFI (cfiCond172) CFA SP+12
          CFI Block cfiCond173 Using cfiCommon0
          CFI (cfiCond173) Function WriteKeyOperationInFlash
          CFI (cfiCond173) Conditional ??CrossCallReturnLabel_200
          CFI (cfiCond173) ?b12 Frame(CFA, -8)
          CFI (cfiCond173) ?b13 Frame(CFA, -7)
          CFI (cfiCond173) ?b8 Frame(CFA, -6)
          CFI (cfiCond173) ?b9 Frame(CFA, -5)
          CFI (cfiCond173) ?b10 Frame(CFA, -4)
          CFI (cfiCond173) ?b11 Frame(CFA, -3)
          CFI (cfiCond173) CFA SP+12
          CFI Block cfiCond174 Using cfiCommon0
          CFI (cfiCond174) Function WriteKeyOperationInFlash
          CFI (cfiCond174) Conditional ??CrossCallReturnLabel_201
          CFI (cfiCond174) ?b12 Frame(CFA, -8)
          CFI (cfiCond174) ?b13 Frame(CFA, -7)
          CFI (cfiCond174) ?b8 Frame(CFA, -6)
          CFI (cfiCond174) ?b9 Frame(CFA, -5)
          CFI (cfiCond174) ?b10 Frame(CFA, -4)
          CFI (cfiCond174) ?b11 Frame(CFA, -3)
          CFI (cfiCond174) CFA SP+12
          CFI Block cfiCond175 Using cfiCommon0
          CFI (cfiCond175) Function WriteKeyOperationInFlash
          CFI (cfiCond175) Conditional ??CrossCallReturnLabel_202
          CFI (cfiCond175) ?b12 Frame(CFA, -8)
          CFI (cfiCond175) ?b13 Frame(CFA, -7)
          CFI (cfiCond175) ?b8 Frame(CFA, -6)
          CFI (cfiCond175) ?b9 Frame(CFA, -5)
          CFI (cfiCond175) ?b10 Frame(CFA, -4)
          CFI (cfiCond175) ?b11 Frame(CFA, -3)
          CFI (cfiCond175) CFA SP+12
          CFI Block cfiCond176 Using cfiCommon0
          CFI (cfiCond176) Function WriteKeyOperationInFlash
          CFI (cfiCond176) Conditional ??CrossCallReturnLabel_203
          CFI (cfiCond176) ?b12 Frame(CFA, -8)
          CFI (cfiCond176) ?b13 Frame(CFA, -7)
          CFI (cfiCond176) ?b8 Frame(CFA, -6)
          CFI (cfiCond176) ?b9 Frame(CFA, -5)
          CFI (cfiCond176) ?b10 Frame(CFA, -4)
          CFI (cfiCond176) ?b11 Frame(CFA, -3)
          CFI (cfiCond176) CFA SP+12
          CFI Block cfiCond177 Using cfiCommon0
          CFI (cfiCond177) Function ControlByAirLearn_NewWriteInFlash
          CFI (cfiCond177) Conditional ??CrossCallReturnLabel_192
          CFI (cfiCond177) ?b12 Frame(CFA, -10)
          CFI (cfiCond177) ?b13 Frame(CFA, -9)
          CFI (cfiCond177) ?b14 Frame(CFA, -8)
          CFI (cfiCond177) ?b15 Frame(CFA, -7)
          CFI (cfiCond177) ?b8 Frame(CFA, -6)
          CFI (cfiCond177) ?b9 Frame(CFA, -5)
          CFI (cfiCond177) ?b10 Frame(CFA, -4)
          CFI (cfiCond177) ?b11 Frame(CFA, -3)
          CFI (cfiCond177) CFA SP+17
          CFI Block cfiCond178 Using cfiCommon0
          CFI (cfiCond178) Function ControlByAirLearn_NewWriteInFlash
          CFI (cfiCond178) Conditional ??CrossCallReturnLabel_193
          CFI (cfiCond178) ?b12 Frame(CFA, -10)
          CFI (cfiCond178) ?b13 Frame(CFA, -9)
          CFI (cfiCond178) ?b14 Frame(CFA, -8)
          CFI (cfiCond178) ?b15 Frame(CFA, -7)
          CFI (cfiCond178) ?b8 Frame(CFA, -6)
          CFI (cfiCond178) ?b9 Frame(CFA, -5)
          CFI (cfiCond178) ?b10 Frame(CFA, -4)
          CFI (cfiCond178) ?b11 Frame(CFA, -3)
          CFI (cfiCond178) CFA SP+17
          CFI Block cfiCond179 Using cfiCommon0
          CFI (cfiCond179) Function ControlByAirLearn_NewWriteInFlash
          CFI (cfiCond179) Conditional ??CrossCallReturnLabel_194
          CFI (cfiCond179) ?b12 Frame(CFA, -10)
          CFI (cfiCond179) ?b13 Frame(CFA, -9)
          CFI (cfiCond179) ?b14 Frame(CFA, -8)
          CFI (cfiCond179) ?b15 Frame(CFA, -7)
          CFI (cfiCond179) ?b8 Frame(CFA, -6)
          CFI (cfiCond179) ?b9 Frame(CFA, -5)
          CFI (cfiCond179) ?b10 Frame(CFA, -4)
          CFI (cfiCond179) ?b11 Frame(CFA, -3)
          CFI (cfiCond179) CFA SP+17
          CFI Block cfiCond180 Using cfiCommon0
          CFI (cfiCond180) Function ControlByAirLearn_NewWriteInFlash
          CFI (cfiCond180) Conditional ??CrossCallReturnLabel_195
          CFI (cfiCond180) ?b12 Frame(CFA, -10)
          CFI (cfiCond180) ?b13 Frame(CFA, -9)
          CFI (cfiCond180) ?b14 Frame(CFA, -8)
          CFI (cfiCond180) ?b15 Frame(CFA, -7)
          CFI (cfiCond180) ?b8 Frame(CFA, -6)
          CFI (cfiCond180) ?b9 Frame(CFA, -5)
          CFI (cfiCond180) ?b10 Frame(CFA, -4)
          CFI (cfiCond180) ?b11 Frame(CFA, -3)
          CFI (cfiCond180) CFA SP+17
          CFI Block cfiCond181 Using cfiCommon0
          CFI (cfiCond181) Function ControlByAirLearn_NewWriteInFlash
          CFI (cfiCond181) Conditional ??CrossCallReturnLabel_196
          CFI (cfiCond181) ?b12 Frame(CFA, -10)
          CFI (cfiCond181) ?b13 Frame(CFA, -9)
          CFI (cfiCond181) ?b14 Frame(CFA, -8)
          CFI (cfiCond181) ?b15 Frame(CFA, -7)
          CFI (cfiCond181) ?b8 Frame(CFA, -6)
          CFI (cfiCond181) ?b9 Frame(CFA, -5)
          CFI (cfiCond181) ?b10 Frame(CFA, -4)
          CFI (cfiCond181) ?b11 Frame(CFA, -3)
          CFI (cfiCond181) CFA SP+17
          CFI Block cfiCond182 Using cfiCommon0
          CFI (cfiCond182) Function ControlByAirLearn_NewWriteInFlash
          CFI (cfiCond182) Conditional ??CrossCallReturnLabel_197
          CFI (cfiCond182) ?b12 Frame(CFA, -10)
          CFI (cfiCond182) ?b13 Frame(CFA, -9)
          CFI (cfiCond182) ?b14 Frame(CFA, -8)
          CFI (cfiCond182) ?b15 Frame(CFA, -7)
          CFI (cfiCond182) ?b8 Frame(CFA, -6)
          CFI (cfiCond182) ?b9 Frame(CFA, -5)
          CFI (cfiCond182) ?b10 Frame(CFA, -4)
          CFI (cfiCond182) ?b11 Frame(CFA, -3)
          CFI (cfiCond182) CFA SP+17
          CFI Block cfiCond183 Using cfiCommon0
          CFI (cfiCond183) Function ControlByAirLearn_NewWriteInFlash
          CFI (cfiCond183) Conditional ??CrossCallReturnLabel_188
          CFI (cfiCond183) ?b12 Frame(CFA, -10)
          CFI (cfiCond183) ?b13 Frame(CFA, -9)
          CFI (cfiCond183) ?b14 Frame(CFA, -8)
          CFI (cfiCond183) ?b15 Frame(CFA, -7)
          CFI (cfiCond183) ?b8 Frame(CFA, -6)
          CFI (cfiCond183) ?b9 Frame(CFA, -5)
          CFI (cfiCond183) ?b10 Frame(CFA, -4)
          CFI (cfiCond183) ?b11 Frame(CFA, -3)
          CFI (cfiCond183) CFA SP+17
          CFI Block cfiCond184 Using cfiCommon0
          CFI (cfiCond184) Function ControlByAirLearn_NewWriteInFlash
          CFI (cfiCond184) Conditional ??CrossCallReturnLabel_189
          CFI (cfiCond184) ?b12 Frame(CFA, -10)
          CFI (cfiCond184) ?b13 Frame(CFA, -9)
          CFI (cfiCond184) ?b14 Frame(CFA, -8)
          CFI (cfiCond184) ?b15 Frame(CFA, -7)
          CFI (cfiCond184) ?b8 Frame(CFA, -6)
          CFI (cfiCond184) ?b9 Frame(CFA, -5)
          CFI (cfiCond184) ?b10 Frame(CFA, -4)
          CFI (cfiCond184) ?b11 Frame(CFA, -3)
          CFI (cfiCond184) CFA SP+17
          CFI Block cfiCond185 Using cfiCommon0
          CFI (cfiCond185) Function WriteKeyOperationInFlash
          CFI (cfiCond185) Conditional ??CrossCallReturnLabel_190
          CFI (cfiCond185) ?b12 Frame(CFA, -8)
          CFI (cfiCond185) ?b13 Frame(CFA, -7)
          CFI (cfiCond185) ?b8 Frame(CFA, -6)
          CFI (cfiCond185) ?b9 Frame(CFA, -5)
          CFI (cfiCond185) ?b10 Frame(CFA, -4)
          CFI (cfiCond185) ?b11 Frame(CFA, -3)
          CFI (cfiCond185) CFA SP+12
          CFI Block cfiCond186 Using cfiCommon0
          CFI (cfiCond186) Function WriteKeyOperationInFlash
          CFI (cfiCond186) Conditional ??CrossCallReturnLabel_191
          CFI (cfiCond186) ?b12 Frame(CFA, -8)
          CFI (cfiCond186) ?b13 Frame(CFA, -7)
          CFI (cfiCond186) ?b8 Frame(CFA, -6)
          CFI (cfiCond186) ?b9 Frame(CFA, -5)
          CFI (cfiCond186) ?b10 Frame(CFA, -4)
          CFI (cfiCond186) ?b11 Frame(CFA, -3)
          CFI (cfiCond186) CFA SP+12
          CFI Block cfiCond187 Using cfiCommon0
          CFI (cfiCond187) Function WriteKeyOperationInFlash
          CFI (cfiCond187) Conditional ??CrossCallReturnLabel_186
          CFI (cfiCond187) ?b12 Frame(CFA, -8)
          CFI (cfiCond187) ?b13 Frame(CFA, -7)
          CFI (cfiCond187) ?b8 Frame(CFA, -6)
          CFI (cfiCond187) ?b9 Frame(CFA, -5)
          CFI (cfiCond187) ?b10 Frame(CFA, -4)
          CFI (cfiCond187) ?b11 Frame(CFA, -3)
          CFI (cfiCond187) CFA SP+12
          CFI Block cfiCond188 Using cfiCommon0
          CFI (cfiCond188) Function WriteKeyOperationInFlash
          CFI (cfiCond188) Conditional ??CrossCallReturnLabel_187
          CFI (cfiCond188) ?b12 Frame(CFA, -8)
          CFI (cfiCond188) ?b13 Frame(CFA, -7)
          CFI (cfiCond188) ?b8 Frame(CFA, -6)
          CFI (cfiCond188) ?b9 Frame(CFA, -5)
          CFI (cfiCond188) ?b10 Frame(CFA, -4)
          CFI (cfiCond188) ?b11 Frame(CFA, -3)
          CFI (cfiCond188) CFA SP+12
          CFI Block cfiPicker189 Using cfiCommon1
          CFI (cfiPicker189) NoFunction
          CFI (cfiPicker189) Picker
        CALLF     FLASH_ProgramByte
        LDW       X, S:?w6
        RETF
          CFI EndBlock cfiCond171
          CFI EndBlock cfiCond172
          CFI EndBlock cfiCond173
          CFI EndBlock cfiCond174
          CFI EndBlock cfiCond175
          CFI EndBlock cfiCond176
          CFI EndBlock cfiCond177
          CFI EndBlock cfiCond178
          CFI EndBlock cfiCond179
          CFI EndBlock cfiCond180
          CFI EndBlock cfiCond181
          CFI EndBlock cfiCond182
          CFI EndBlock cfiCond183
          CFI EndBlock cfiCond184
          CFI EndBlock cfiCond185
          CFI EndBlock cfiCond186
          CFI EndBlock cfiCond187
          CFI EndBlock cfiCond188
          CFI EndBlock cfiPicker189

        SECTION `.far_func.text`:CODE:NOROOT(0)
?Subroutine12:
          CFI Block cfiCond190 Using cfiCommon0
          CFI Function ControlByAirLearn_NewWriteInFlash
          CFI Conditional ??CrossCallReturnLabel_14
          CFI ?b12 Frame(CFA, -10)
          CFI ?b13 Frame(CFA, -9)
          CFI ?b14 Frame(CFA, -8)
          CFI ?b15 Frame(CFA, -7)
          CFI ?b8 Frame(CFA, -6)
          CFI ?b9 Frame(CFA, -5)
          CFI ?b10 Frame(CFA, -4)
          CFI ?b11 Frame(CFA, -3)
          CFI CFA SP+17
          CFI Block cfiCond191 Using cfiCommon0
          CFI (cfiCond191) Function WriteKeyOperationInFlash
          CFI (cfiCond191) Conditional ??CrossCallReturnLabel_15
          CFI (cfiCond191) ?b12 Frame(CFA, -8)
          CFI (cfiCond191) ?b13 Frame(CFA, -7)
          CFI (cfiCond191) ?b8 Frame(CFA, -6)
          CFI (cfiCond191) ?b9 Frame(CFA, -5)
          CFI (cfiCond191) ?b10 Frame(CFA, -4)
          CFI (cfiCond191) ?b11 Frame(CFA, -3)
          CFI (cfiCond191) CFA SP+12
          CFI Block cfiPicker192 Using cfiCommon1
          CFI (cfiPicker192) NoFunction
          CFI (cfiPicker192) Picker
        LD        A, #0xf7
        CALLF     FLASH_Unlock
        CALLF     ?Subroutine72
??CrossCallReturnLabel_240:
        CLRW      X
        EXG       A, XL
        LD        A, S:?b9
        EXG       A, XL
        LDW       Y, X
        CALLF     ?Subroutine76
??CrossCallReturnLabel_179:
        LDW       S:?w6, X
        LDW       X, Y
        SLLW      X
        SLLW      X
        SLLW      X
        SLLW      X
        LD        A, S:?b8
        RETF
          CFI EndBlock cfiCond190
          CFI EndBlock cfiCond191
          CFI EndBlock cfiPicker192

        SECTION `.far_func.text`:CODE:NOROOT(0)
          CFI Block cfiBlock193 Using cfiCommon0
          CFI Function WriteIdInFlash
        CODE
WriteIdInFlash:
        CALLF     L:?push_l2
          CFI ?b11 Frame(CFA, -3)
          CFI ?b10 Frame(CFA, -4)
          CFI ?b9 Frame(CFA, -5)
          CFI ?b8 Frame(CFA, -6)
          CFI CFA SP+7
        LD        S:?b11, A
        MOV       S:?b10, S:?b0
        MOV       S:?b8, S:?b1
        MOV       S:?b9, S:?b2
        CALLF     ?Subroutine53
??CrossCallReturnLabel_105:
        CALLF     ??Subroutine102_0
??CrossCallReturnLabel_236:
        LD        A, L:Public_learned_ID_num
        CLRW      Y
        LD        YL, A
        CALLF     ??Subroutine89_0
??CrossCallReturnLabel_169:
        LD        A, S:?b11
        CALLF     ?Subroutine47
??CrossCallReturnLabel_165:
        LD        A, S:?b10
        CALLF     ?Subroutine48
??CrossCallReturnLabel_160:
        LD        A, S:?b8
        LD        (Y), A
        ADDW      X, #0x4
        LD        A, S:?b9
        LD        (X), A
        LD        A, L:Public_learned_ID_num
        INC       A
        CALLF     ?Subroutine25
??CrossCallReturnLabel_221:
        LD        A, S:?b11
        LDW       X, L:IdStartAddress
        CALLF     ?Subroutine13
??CrossCallReturnLabel_16:
        LD        A, S:?b10
        CALLF     ?Subroutine13
??CrossCallReturnLabel_17:
        LD        A, S:?b8
        CALLF     ?Subroutine13
??CrossCallReturnLabel_18:
        LD        A, S:?b9
        CALLF     ?Subroutine21
??CrossCallReturnLabel_34:
        ADDW      X, #0xd
        LDW       L:IdStartAddress, X
        CLR       A
        RRWA      X, A
        LD        A, XL
        LDW       X, #0x1005
        CALLF     ?Subroutine21
??CrossCallReturnLabel_35:
        LD        A, XL
        LDW       X, #0x1006
        CALLF     ??Subroutine100_0
??CrossCallReturnLabel_224:
        CALLF     ?Subroutine52
??CrossCallReturnLabel_98:
        JPF       L:?epilogue_l2
          CFI EndBlock cfiBlock193

        SECTION `.far_func.text`:CODE:NOROOT(0)
?Subroutine53:
          CFI Block cfiCond194 Using cfiCommon0
          CFI Function ClearFlash
          CFI Conditional ??CrossCallReturnLabel_107
          CFI ?b10 Frame(CFA, -5)
          CFI ?b8 Frame(CFA, -4)
          CFI ?b9 Frame(CFA, -3)
          CFI CFA SP+9
          CFI Block cfiCond195 Using cfiCommon0
          CFI (cfiCond195) Function UpdateDatasAdressInFlash
          CFI (cfiCond195) Conditional ??CrossCallReturnLabel_106
          CFI (cfiCond195) ?b12 Frame(CFA, -10)
          CFI (cfiCond195) ?b13 Frame(CFA, -9)
          CFI (cfiCond195) ?b14 Frame(CFA, -8)
          CFI (cfiCond195) ?b15 Frame(CFA, -7)
          CFI (cfiCond195) ?b8 Frame(CFA, -6)
          CFI (cfiCond195) ?b9 Frame(CFA, -5)
          CFI (cfiCond195) ?b10 Frame(CFA, -4)
          CFI (cfiCond195) ?b11 Frame(CFA, -3)
          CFI (cfiCond195) CFA SP+19
          CFI Block cfiCond196 Using cfiCommon0
          CFI (cfiCond196) Function WriteIdInFlash
          CFI (cfiCond196) Conditional ??CrossCallReturnLabel_105
          CFI (cfiCond196) ?b8 Frame(CFA, -6)
          CFI (cfiCond196) ?b9 Frame(CFA, -5)
          CFI (cfiCond196) ?b10 Frame(CFA, -4)
          CFI (cfiCond196) ?b11 Frame(CFA, -3)
          CFI (cfiCond196) CFA SP+10
          CFI Block cfiCond197 Using cfiCommon0
          CFI (cfiCond197) Function ReadIdInFlash
          CFI (cfiCond197) Conditional ??CrossCallReturnLabel_104
          CFI (cfiCond197) ?b10 Frame(CFA, -9)
          CFI (cfiCond197) ?b8 Frame(CFA, -8)
          CFI (cfiCond197) ?b9 Frame(CFA, -7)
          CFI (cfiCond197) ?b12 Frame(CFA, -6)
          CFI (cfiCond197) ?b13 Frame(CFA, -5)
          CFI (cfiCond197) ?b14 Frame(CFA, -4)
          CFI (cfiCond197) ?b15 Frame(CFA, -3)
          CFI (cfiCond197) CFA SP+13
          CFI Block cfiCond198 Using cfiCommon0
          CFI (cfiCond198) Function FirstPower
          CFI (cfiCond198) Conditional ??CrossCallReturnLabel_103
          CFI (cfiCond198) CFA SP+6
          CFI Block cfiPicker199 Using cfiCommon1
          CFI (cfiPicker199) NoFunction
          CFI (cfiPicker199) Picker
        LD        A, #0xf7
        JPF       FLASH_Unlock
          CFI EndBlock cfiCond194
          CFI EndBlock cfiCond195
          CFI EndBlock cfiCond196
          CFI EndBlock cfiCond197
          CFI EndBlock cfiCond198
          CFI EndBlock cfiPicker199

        SECTION `.far_func.text`:CODE:NOROOT(0)
?Subroutine52:
          CFI Block cfiCond200 Using cfiCommon0
          CFI Function ClearFlash
          CFI Conditional ??CrossCallReturnLabel_102
          CFI ?b10 Frame(CFA, -5)
          CFI ?b8 Frame(CFA, -4)
          CFI ?b9 Frame(CFA, -3)
          CFI CFA SP+9
          CFI Block cfiCond201 Using cfiCommon0
          CFI (cfiCond201) Function UpdateDatasAdressInFlash
          CFI (cfiCond201) Conditional ??CrossCallReturnLabel_101
          CFI (cfiCond201) ?b12 Frame(CFA, -10)
          CFI (cfiCond201) ?b13 Frame(CFA, -9)
          CFI (cfiCond201) ?b14 Frame(CFA, -8)
          CFI (cfiCond201) ?b15 Frame(CFA, -7)
          CFI (cfiCond201) ?b8 Frame(CFA, -6)
          CFI (cfiCond201) ?b9 Frame(CFA, -5)
          CFI (cfiCond201) ?b10 Frame(CFA, -4)
          CFI (cfiCond201) ?b11 Frame(CFA, -3)
          CFI (cfiCond201) CFA SP+19
          CFI Block cfiCond202 Using cfiCommon0
          CFI (cfiCond202) Function ControlByAirLearn_NewWriteInFlash
          CFI (cfiCond202) Conditional ??CrossCallReturnLabel_100
          CFI (cfiCond202) ?b12 Frame(CFA, -10)
          CFI (cfiCond202) ?b13 Frame(CFA, -9)
          CFI (cfiCond202) ?b14 Frame(CFA, -8)
          CFI (cfiCond202) ?b15 Frame(CFA, -7)
          CFI (cfiCond202) ?b8 Frame(CFA, -6)
          CFI (cfiCond202) ?b9 Frame(CFA, -5)
          CFI (cfiCond202) ?b10 Frame(CFA, -4)
          CFI (cfiCond202) ?b11 Frame(CFA, -3)
          CFI (cfiCond202) CFA SP+17
          CFI Block cfiCond203 Using cfiCommon0
          CFI (cfiCond203) Function WriteKeyOperationInFlash
          CFI (cfiCond203) Conditional ??CrossCallReturnLabel_99
          CFI (cfiCond203) ?b12 Frame(CFA, -8)
          CFI (cfiCond203) ?b13 Frame(CFA, -7)
          CFI (cfiCond203) ?b8 Frame(CFA, -6)
          CFI (cfiCond203) ?b9 Frame(CFA, -5)
          CFI (cfiCond203) ?b10 Frame(CFA, -4)
          CFI (cfiCond203) ?b11 Frame(CFA, -3)
          CFI (cfiCond203) CFA SP+12
          CFI Block cfiCond204 Using cfiCommon0
          CFI (cfiCond204) Function WriteIdInFlash
          CFI (cfiCond204) Conditional ??CrossCallReturnLabel_98
          CFI (cfiCond204) ?b8 Frame(CFA, -6)
          CFI (cfiCond204) ?b9 Frame(CFA, -5)
          CFI (cfiCond204) ?b10 Frame(CFA, -4)
          CFI (cfiCond204) ?b11 Frame(CFA, -3)
          CFI (cfiCond204) CFA SP+10
          CFI Block cfiCond205 Using cfiCommon0
          CFI (cfiCond205) Function ReadIdInFlash
          CFI (cfiCond205) Conditional ??CrossCallReturnLabel_97
          CFI (cfiCond205) ?b10 Frame(CFA, -9)
          CFI (cfiCond205) ?b8 Frame(CFA, -8)
          CFI (cfiCond205) ?b9 Frame(CFA, -7)
          CFI (cfiCond205) ?b12 Frame(CFA, -6)
          CFI (cfiCond205) ?b13 Frame(CFA, -5)
          CFI (cfiCond205) ?b14 Frame(CFA, -4)
          CFI (cfiCond205) ?b15 Frame(CFA, -3)
          CFI (cfiCond205) CFA SP+13
          CFI Block cfiPicker206 Using cfiCommon1
          CFI (cfiPicker206) NoFunction
          CFI (cfiPicker206) Picker
        LD        A, #0xf7
        JPF       FLASH_Lock
          CFI EndBlock cfiCond200
          CFI EndBlock cfiCond201
          CFI EndBlock cfiCond202
          CFI EndBlock cfiCond203
          CFI EndBlock cfiCond204
          CFI EndBlock cfiCond205
          CFI EndBlock cfiPicker206

        SECTION `.far_func.text`:CODE:NOROOT(0)
?Subroutine21:
          CFI Block cfiCond207 Using cfiCommon0
          CFI Function WriteIdInFlash
          CFI Conditional ??CrossCallReturnLabel_34
          CFI ?b8 Frame(CFA, -6)
          CFI ?b9 Frame(CFA, -5)
          CFI ?b10 Frame(CFA, -4)
          CFI ?b11 Frame(CFA, -3)
          CFI CFA SP+10
          CFI Block cfiCond208 Using cfiCommon0
          CFI (cfiCond208) Function WriteIdInFlash
          CFI (cfiCond208) Conditional ??CrossCallReturnLabel_35
          CFI (cfiCond208) ?b8 Frame(CFA, -6)
          CFI (cfiCond208) ?b9 Frame(CFA, -5)
          CFI (cfiCond208) ?b10 Frame(CFA, -4)
          CFI (cfiCond208) ?b11 Frame(CFA, -3)
          CFI (cfiCond208) CFA SP+10
          CFI Block cfiPicker209 Using cfiCommon1
          CFI (cfiPicker209) NoFunction
          CFI (cfiPicker209) Picker
        CALLF     ?Subroutine73
??CrossCallReturnLabel_133:
        RETF
          CFI EndBlock cfiCond207
          CFI EndBlock cfiCond208
          CFI EndBlock cfiPicker209

        SECTION `.far_func.text`:CODE:NOROOT(0)
?Subroutine73:
          CFI Block cfiCond210 Using cfiCommon0
          CFI Function WriteIdInFlash
          CFI Conditional ??CrossCallReturnLabel_133, ??CrossCallReturnLabel_34
          CFI ?b8 Frame(CFA, -6)
          CFI ?b9 Frame(CFA, -5)
          CFI ?b10 Frame(CFA, -4)
          CFI ?b11 Frame(CFA, -3)
          CFI CFA SP+13
          CFI Block cfiCond211 Using cfiCommon0
          CFI (cfiCond211) Function WriteIdInFlash
          CFI (cfiCond211) Conditional ??CrossCallReturnLabel_133, ??CrossCallReturnLabel_35
          CFI (cfiCond211) ?b8 Frame(CFA, -6)
          CFI (cfiCond211) ?b9 Frame(CFA, -5)
          CFI (cfiCond211) ?b10 Frame(CFA, -4)
          CFI (cfiCond211) ?b11 Frame(CFA, -3)
          CFI (cfiCond211) CFA SP+13
          CFI Block cfiCond212 Using cfiCommon0
          CFI (cfiCond212) Function WriteIdInFlash
          CFI (cfiCond212) Conditional ??CrossCallReturnLabel_134, ??CrossCallReturnLabel_16
          CFI (cfiCond212) ?b8 Frame(CFA, -6)
          CFI (cfiCond212) ?b9 Frame(CFA, -5)
          CFI (cfiCond212) ?b10 Frame(CFA, -4)
          CFI (cfiCond212) ?b11 Frame(CFA, -3)
          CFI (cfiCond212) CFA SP+13
          CFI Block cfiCond213 Using cfiCommon0
          CFI (cfiCond213) Function WriteIdInFlash
          CFI (cfiCond213) Conditional ??CrossCallReturnLabel_134, ??CrossCallReturnLabel_17
          CFI (cfiCond213) ?b8 Frame(CFA, -6)
          CFI (cfiCond213) ?b9 Frame(CFA, -5)
          CFI (cfiCond213) ?b10 Frame(CFA, -4)
          CFI (cfiCond213) ?b11 Frame(CFA, -3)
          CFI (cfiCond213) CFA SP+13
          CFI Block cfiCond214 Using cfiCommon0
          CFI (cfiCond214) Function WriteIdInFlash
          CFI (cfiCond214) Conditional ??CrossCallReturnLabel_134, ??CrossCallReturnLabel_18
          CFI (cfiCond214) ?b8 Frame(CFA, -6)
          CFI (cfiCond214) ?b9 Frame(CFA, -5)
          CFI (cfiCond214) ?b10 Frame(CFA, -4)
          CFI (cfiCond214) ?b11 Frame(CFA, -3)
          CFI (cfiCond214) CFA SP+13
          CFI Block cfiPicker215 Using cfiCommon1
          CFI (cfiPicker215) NoFunction
          CFI (cfiPicker215) Picker
        LDW       S:?w1, X
        CLRW      X
        LDW       S:?w0, X
        CALLF     FLASH_ProgramByte
        LDW       X, L:IdStartAddress
        RETF
          CFI EndBlock cfiCond210
          CFI EndBlock cfiCond211
          CFI EndBlock cfiCond212
          CFI EndBlock cfiCond213
          CFI EndBlock cfiCond214
          CFI EndBlock cfiPicker215

        SECTION `.far_func.text`:CODE:NOROOT(0)
?Subroutine13:
          CFI Block cfiCond216 Using cfiCommon0
          CFI Function WriteIdInFlash
          CFI Conditional ??CrossCallReturnLabel_16
          CFI ?b8 Frame(CFA, -6)
          CFI ?b9 Frame(CFA, -5)
          CFI ?b10 Frame(CFA, -4)
          CFI ?b11 Frame(CFA, -3)
          CFI CFA SP+10
          CFI Block cfiCond217 Using cfiCommon0
          CFI (cfiCond217) Function WriteIdInFlash
          CFI (cfiCond217) Conditional ??CrossCallReturnLabel_17
          CFI (cfiCond217) ?b8 Frame(CFA, -6)
          CFI (cfiCond217) ?b9 Frame(CFA, -5)
          CFI (cfiCond217) ?b10 Frame(CFA, -4)
          CFI (cfiCond217) ?b11 Frame(CFA, -3)
          CFI (cfiCond217) CFA SP+10
          CFI Block cfiCond218 Using cfiCommon0
          CFI (cfiCond218) Function WriteIdInFlash
          CFI (cfiCond218) Conditional ??CrossCallReturnLabel_18
          CFI (cfiCond218) ?b8 Frame(CFA, -6)
          CFI (cfiCond218) ?b9 Frame(CFA, -5)
          CFI (cfiCond218) ?b10 Frame(CFA, -4)
          CFI (cfiCond218) ?b11 Frame(CFA, -3)
          CFI (cfiCond218) CFA SP+10
          CFI Block cfiPicker219 Using cfiCommon1
          CFI (cfiPicker219) NoFunction
          CFI (cfiPicker219) Picker
        CALLF     ?Subroutine73
??CrossCallReturnLabel_134:
        INCW      X
        LDW       L:IdStartAddress, X
        RETF
          CFI EndBlock cfiCond216
          CFI EndBlock cfiCond217
          CFI EndBlock cfiCond218
          CFI EndBlock cfiPicker219

        SECTION `.far_func.text`:CODE:NOROOT(0)
          CFI Block cfiBlock220 Using cfiCommon0
          CFI Function FindIdInFlash
        CODE
FindIdInFlash:
        LD        S:?b6, A
        MOV       S:?b3, S:?b0
        MOV       S:?b4, S:?b1
        CLR       S:?b5
??FindIdInFlash_0:
        CLRW      Y
        EXG       A, YL
        LD        A, S:?b5
        CALLF     ?Subroutine30
??CrossCallReturnLabel_171:
        LD        A, S:?b6
        CP        A, (Y)
        JRNE      L:??FindIdInFlash_1
        CALLF     ??Subroutine88_0
??CrossCallReturnLabel_168:
        LD        A, S:?b3
        CP        A, (Y)
        JRNE      L:??FindIdInFlash_1
        CALLF     ??Subroutine87_0
??CrossCallReturnLabel_163:
        LD        A, S:?b4
        CP        A, (Y)
        JRNE      L:??FindIdInFlash_1
        ADDW      X, #0x4
        LD        A, S:?b2
        CP        A, (X)
        JRNE      L:??FindIdInFlash_1
        LD        A, S:?b5
        RETF
??FindIdInFlash_1:
        LD        A, S:?b5
        INC       A
        LD        S:?b5, A
        CP        A, #0xa
        JRC       L:??FindIdInFlash_0
        LD        A, #0x77
        RETF
          CFI EndBlock cfiBlock220

        SECTION `.far_func.text`:CODE:NOROOT(0)
          CFI Block cfiBlock221 Using cfiCommon0
          CFI Function ReadIdInFlash
        CODE
ReadIdInFlash:
        CALLF     L:?push_l3
          CFI ?b15 Frame(CFA, -3)
          CFI ?b14 Frame(CFA, -4)
          CFI ?b13 Frame(CFA, -5)
          CFI ?b12 Frame(CFA, -6)
          CFI CFA SP+7
        CALLF     L:?push_w4
          CFI ?b9 Frame(CFA, -7)
          CFI ?b8 Frame(CFA, -8)
          CFI CFA SP+9
        PUSH      S:?b10
          CFI ?b10 Frame(CFA, -9)
          CFI CFA SP+10
        LDW       X, #0x1010
        LDW       S:?w6, X
        CALLF     ?Subroutine53
??CrossCallReturnLabel_104:
        CALLF     ??Subroutine102_0
??CrossCallReturnLabel_237:
        LD        A, L:firstpower
        CP        A, #0x1
        JRNE      L:??ReadIdInFlash_0
        LD        A, #0x10
        LDW       X, #0x1005
        CALLF     ?Subroutine23
??CrossCallReturnLabel_37:
        LDW       X, #0x1006
        CALLF     ??Subroutine100_0
??CrossCallReturnLabel_225:
        JRA       L:??ReadIdInFlash_1
??ReadIdInFlash_0:
        LD        A, L:firstpower
        JRNE      L:??ReadIdInFlash_1
        CALLF     ?Subroutine11
??CrossCallReturnLabel_13:
        CLRW      X
        LD        XL, A
        LDW       S:?w0, X
        LD        A, S:?b8
        EXG       A, XL
        CLR       A
        RLWA      X, A
        ADDW      X, S:?w0
        LDW       L:IdStartAddress, X
        JRNE      L:??ReadIdInFlash_1
        LDW       X, #0x1010
        LDW       L:IdStartAddress, X
??ReadIdInFlash_1:
        CLR       S:?b10
??ReadIdInFlash_2:
        CALLF     ?Subroutine28
??CrossCallReturnLabel_45:
        CALLF     ?Subroutine69
??CrossCallReturnLabel_210:
        LDW       X, S:?w4
        INCW      X
        LD        (X), A
        LDW       X, S:?w6
        CALLF     ?Subroutine27
??CrossCallReturnLabel_43:
        LDW       S:?w6, X
        LD        A, S:?b10
        INC       A
        LD        S:?b10, A
        CP        A, #0xa
        JRC       L:??ReadIdInFlash_2
        CALLF     ?Subroutine52
??CrossCallReturnLabel_97:
        POP       S:?b10
          CFI ?b10 SameValue
          CFI CFA SP+9
        CALLF     L:?pop_w4
          CFI ?b8 SameValue
          CFI ?b9 SameValue
          CFI CFA SP+7
        CALLF     L:?pop_l3
          CFI ?b12 SameValue
          CFI ?b13 SameValue
          CFI ?b14 SameValue
          CFI ?b15 SameValue
          CFI CFA SP+3
        RETF
          CFI EndBlock cfiBlock221

        SECTION `.far_func.text`:CODE:NOROOT(0)
?Subroutine69:
          CFI Block cfiCond222 Using cfiCommon0
          CFI Function ReadIdInFlash
          CFI Conditional ??CrossCallReturnLabel_210
          CFI ?b10 Frame(CFA, -9)
          CFI ?b8 Frame(CFA, -8)
          CFI ?b9 Frame(CFA, -7)
          CFI ?b12 Frame(CFA, -6)
          CFI ?b13 Frame(CFA, -5)
          CFI ?b14 Frame(CFA, -4)
          CFI ?b15 Frame(CFA, -3)
          CFI CFA SP+13
          CFI Block cfiCond223 Using cfiCommon0
          CFI (cfiCond223) Function UpdateDatasAdressInFlash
          CFI (cfiCond223) Conditional ??CrossCallReturnLabel_209, ??CrossCallReturnLabel_42
          CFI (cfiCond223) ?b12 Frame(CFA, -10)
          CFI (cfiCond223) ?b13 Frame(CFA, -9)
          CFI (cfiCond223) ?b14 Frame(CFA, -8)
          CFI (cfiCond223) ?b15 Frame(CFA, -7)
          CFI (cfiCond223) ?b8 Frame(CFA, -6)
          CFI (cfiCond223) ?b9 Frame(CFA, -5)
          CFI (cfiCond223) ?b10 Frame(CFA, -4)
          CFI (cfiCond223) ?b11 Frame(CFA, -3)
          CFI (cfiCond223) CFA SP+22
          CFI Block cfiCond224 Using cfiCommon0
          CFI (cfiCond224) Function ReadIdInFlash
          CFI (cfiCond224) Conditional ??CrossCallReturnLabel_209, ??CrossCallReturnLabel_43
          CFI (cfiCond224) ?b10 Frame(CFA, -9)
          CFI (cfiCond224) ?b8 Frame(CFA, -8)
          CFI (cfiCond224) ?b9 Frame(CFA, -7)
          CFI (cfiCond224) ?b12 Frame(CFA, -6)
          CFI (cfiCond224) ?b13 Frame(CFA, -5)
          CFI (cfiCond224) ?b14 Frame(CFA, -4)
          CFI (cfiCond224) ?b15 Frame(CFA, -3)
          CFI (cfiCond224) CFA SP+16
          CFI Block cfiCond225 Using cfiCommon0
          CFI (cfiCond225) Function UpdateDatasAdressInFlash
          CFI (cfiCond225) Conditional ??CrossCallReturnLabel_208, ??CrossCallReturnLabel_42
          CFI (cfiCond225) ?b12 Frame(CFA, -10)
          CFI (cfiCond225) ?b13 Frame(CFA, -9)
          CFI (cfiCond225) ?b14 Frame(CFA, -8)
          CFI (cfiCond225) ?b15 Frame(CFA, -7)
          CFI (cfiCond225) ?b8 Frame(CFA, -6)
          CFI (cfiCond225) ?b9 Frame(CFA, -5)
          CFI (cfiCond225) ?b10 Frame(CFA, -4)
          CFI (cfiCond225) ?b11 Frame(CFA, -3)
          CFI (cfiCond225) CFA SP+22
          CFI Block cfiCond226 Using cfiCommon0
          CFI (cfiCond226) Function ReadIdInFlash
          CFI (cfiCond226) Conditional ??CrossCallReturnLabel_208, ??CrossCallReturnLabel_43
          CFI (cfiCond226) ?b10 Frame(CFA, -9)
          CFI (cfiCond226) ?b8 Frame(CFA, -8)
          CFI (cfiCond226) ?b9 Frame(CFA, -7)
          CFI (cfiCond226) ?b12 Frame(CFA, -6)
          CFI (cfiCond226) ?b13 Frame(CFA, -5)
          CFI (cfiCond226) ?b14 Frame(CFA, -4)
          CFI (cfiCond226) ?b15 Frame(CFA, -3)
          CFI (cfiCond226) CFA SP+16
          CFI Block cfiPicker227 Using cfiCommon1
          CFI (cfiPicker227) NoFunction
          CFI (cfiPicker227) Picker
        CALLF     L:?mov_w1_w6
          CFI EndBlock cfiCond222
          CFI EndBlock cfiCond223
          CFI EndBlock cfiCond224
          CFI EndBlock cfiCond225
          CFI EndBlock cfiCond226
          CFI EndBlock cfiPicker227
        REQUIRE ??Subroutine95_0
        ;               // Fall through to label ??Subroutine95_0

        SECTION `.far_func.text`:CODE:NOROOT(0)
??Subroutine95_0:
          CFI Block cfiCond228 Using cfiCommon0
          CFI Function UpdateDatasAdressInFlash
          CFI Conditional ??CrossCallReturnLabel_207, ??CrossCallReturnLabel_12
          CFI ?b12 Frame(CFA, -10)
          CFI ?b13 Frame(CFA, -9)
          CFI ?b14 Frame(CFA, -8)
          CFI ?b15 Frame(CFA, -7)
          CFI ?b8 Frame(CFA, -6)
          CFI ?b9 Frame(CFA, -5)
          CFI ?b10 Frame(CFA, -4)
          CFI ?b11 Frame(CFA, -3)
          CFI CFA SP+22
          CFI Block cfiCond229 Using cfiCommon0
          CFI (cfiCond229) Function ReadIdInFlash
          CFI (cfiCond229) Conditional ??CrossCallReturnLabel_207, ??CrossCallReturnLabel_13
          CFI (cfiCond229) ?b10 Frame(CFA, -9)
          CFI (cfiCond229) ?b8 Frame(CFA, -8)
          CFI (cfiCond229) ?b9 Frame(CFA, -7)
          CFI (cfiCond229) ?b12 Frame(CFA, -6)
          CFI (cfiCond229) ?b13 Frame(CFA, -5)
          CFI (cfiCond229) ?b14 Frame(CFA, -4)
          CFI (cfiCond229) ?b15 Frame(CFA, -3)
          CFI (cfiCond229) CFA SP+16
          CFI Block cfiCond230 Using cfiCommon0
          CFI (cfiCond230) Function UpdateDatasAdressInFlash
          CFI (cfiCond230) Conditional ??CrossCallReturnLabel_206, ??CrossCallReturnLabel_12
          CFI (cfiCond230) ?b12 Frame(CFA, -10)
          CFI (cfiCond230) ?b13 Frame(CFA, -9)
          CFI (cfiCond230) ?b14 Frame(CFA, -8)
          CFI (cfiCond230) ?b15 Frame(CFA, -7)
          CFI (cfiCond230) ?b8 Frame(CFA, -6)
          CFI (cfiCond230) ?b9 Frame(CFA, -5)
          CFI (cfiCond230) ?b10 Frame(CFA, -4)
          CFI (cfiCond230) ?b11 Frame(CFA, -3)
          CFI (cfiCond230) CFA SP+22
          CFI Block cfiCond231 Using cfiCommon0
          CFI (cfiCond231) Function ReadIdInFlash
          CFI (cfiCond231) Conditional ??CrossCallReturnLabel_206, ??CrossCallReturnLabel_13
          CFI (cfiCond231) ?b10 Frame(CFA, -9)
          CFI (cfiCond231) ?b8 Frame(CFA, -8)
          CFI (cfiCond231) ?b9 Frame(CFA, -7)
          CFI (cfiCond231) ?b12 Frame(CFA, -6)
          CFI (cfiCond231) ?b13 Frame(CFA, -5)
          CFI (cfiCond231) ?b14 Frame(CFA, -4)
          CFI (cfiCond231) ?b15 Frame(CFA, -3)
          CFI (cfiCond231) CFA SP+16
          CFI Block cfiCond232 Using cfiCommon0
          CFI (cfiCond232) Function UpdateDatasAdressInFlash
          CFI (cfiCond232) Conditional ??CrossCallReturnLabel_205, ??CrossCallReturnLabel_12
          CFI (cfiCond232) ?b12 Frame(CFA, -10)
          CFI (cfiCond232) ?b13 Frame(CFA, -9)
          CFI (cfiCond232) ?b14 Frame(CFA, -8)
          CFI (cfiCond232) ?b15 Frame(CFA, -7)
          CFI (cfiCond232) ?b8 Frame(CFA, -6)
          CFI (cfiCond232) ?b9 Frame(CFA, -5)
          CFI (cfiCond232) ?b10 Frame(CFA, -4)
          CFI (cfiCond232) ?b11 Frame(CFA, -3)
          CFI (cfiCond232) CFA SP+22
          CFI Block cfiCond233 Using cfiCommon0
          CFI (cfiCond233) Function ReadIdInFlash
          CFI (cfiCond233) Conditional ??CrossCallReturnLabel_205, ??CrossCallReturnLabel_13
          CFI (cfiCond233) ?b10 Frame(CFA, -9)
          CFI (cfiCond233) ?b8 Frame(CFA, -8)
          CFI (cfiCond233) ?b9 Frame(CFA, -7)
          CFI (cfiCond233) ?b12 Frame(CFA, -6)
          CFI (cfiCond233) ?b13 Frame(CFA, -5)
          CFI (cfiCond233) ?b14 Frame(CFA, -4)
          CFI (cfiCond233) ?b15 Frame(CFA, -3)
          CFI (cfiCond233) CFA SP+16
          CFI Block cfiCond234 Using cfiCommon0
          CFI (cfiCond234) Function UpdateDatasAdressInFlash
          CFI (cfiCond234) Conditional ??CrossCallReturnLabel_204, ??CrossCallReturnLabel_40
          CFI (cfiCond234) ?b12 Frame(CFA, -10)
          CFI (cfiCond234) ?b13 Frame(CFA, -9)
          CFI (cfiCond234) ?b14 Frame(CFA, -8)
          CFI (cfiCond234) ?b15 Frame(CFA, -7)
          CFI (cfiCond234) ?b8 Frame(CFA, -6)
          CFI (cfiCond234) ?b9 Frame(CFA, -5)
          CFI (cfiCond234) ?b10 Frame(CFA, -4)
          CFI (cfiCond234) ?b11 Frame(CFA, -3)
          CFI (cfiCond234) CFA SP+22
          CFI Block cfiCond235 Using cfiCommon0
          CFI (cfiCond235) Function FirstPower
          CFI (cfiCond235) Conditional ??CrossCallReturnLabel_204, ??CrossCallReturnLabel_41
          CFI (cfiCond235) CFA SP+9
          CFI Block cfiCond236 Using cfiCommon0
          CFI (cfiCond236) Function ReadIdInFlash
          CFI (cfiCond236) Conditional ??CrossCallReturnLabel_210
          CFI (cfiCond236) ?b10 Frame(CFA, -9)
          CFI (cfiCond236) ?b8 Frame(CFA, -8)
          CFI (cfiCond236) ?b9 Frame(CFA, -7)
          CFI (cfiCond236) ?b12 Frame(CFA, -6)
          CFI (cfiCond236) ?b13 Frame(CFA, -5)
          CFI (cfiCond236) ?b14 Frame(CFA, -4)
          CFI (cfiCond236) ?b15 Frame(CFA, -3)
          CFI (cfiCond236) CFA SP+13
          CFI Block cfiCond237 Using cfiCommon0
          CFI (cfiCond237) Function UpdateDatasAdressInFlash
          CFI (cfiCond237) Conditional ??CrossCallReturnLabel_209, ??CrossCallReturnLabel_42
          CFI (cfiCond237) ?b12 Frame(CFA, -10)
          CFI (cfiCond237) ?b13 Frame(CFA, -9)
          CFI (cfiCond237) ?b14 Frame(CFA, -8)
          CFI (cfiCond237) ?b15 Frame(CFA, -7)
          CFI (cfiCond237) ?b8 Frame(CFA, -6)
          CFI (cfiCond237) ?b9 Frame(CFA, -5)
          CFI (cfiCond237) ?b10 Frame(CFA, -4)
          CFI (cfiCond237) ?b11 Frame(CFA, -3)
          CFI (cfiCond237) CFA SP+22
          CFI Block cfiCond238 Using cfiCommon0
          CFI (cfiCond238) Function ReadIdInFlash
          CFI (cfiCond238) Conditional ??CrossCallReturnLabel_209, ??CrossCallReturnLabel_43
          CFI (cfiCond238) ?b10 Frame(CFA, -9)
          CFI (cfiCond238) ?b8 Frame(CFA, -8)
          CFI (cfiCond238) ?b9 Frame(CFA, -7)
          CFI (cfiCond238) ?b12 Frame(CFA, -6)
          CFI (cfiCond238) ?b13 Frame(CFA, -5)
          CFI (cfiCond238) ?b14 Frame(CFA, -4)
          CFI (cfiCond238) ?b15 Frame(CFA, -3)
          CFI (cfiCond238) CFA SP+16
          CFI Block cfiCond239 Using cfiCommon0
          CFI (cfiCond239) Function UpdateDatasAdressInFlash
          CFI (cfiCond239) Conditional ??CrossCallReturnLabel_208, ??CrossCallReturnLabel_42
          CFI (cfiCond239) ?b12 Frame(CFA, -10)
          CFI (cfiCond239) ?b13 Frame(CFA, -9)
          CFI (cfiCond239) ?b14 Frame(CFA, -8)
          CFI (cfiCond239) ?b15 Frame(CFA, -7)
          CFI (cfiCond239) ?b8 Frame(CFA, -6)
          CFI (cfiCond239) ?b9 Frame(CFA, -5)
          CFI (cfiCond239) ?b10 Frame(CFA, -4)
          CFI (cfiCond239) ?b11 Frame(CFA, -3)
          CFI (cfiCond239) CFA SP+22
          CFI Block cfiCond240 Using cfiCommon0
          CFI (cfiCond240) Function ReadIdInFlash
          CFI (cfiCond240) Conditional ??CrossCallReturnLabel_208, ??CrossCallReturnLabel_43
          CFI (cfiCond240) ?b10 Frame(CFA, -9)
          CFI (cfiCond240) ?b8 Frame(CFA, -8)
          CFI (cfiCond240) ?b9 Frame(CFA, -7)
          CFI (cfiCond240) ?b12 Frame(CFA, -6)
          CFI (cfiCond240) ?b13 Frame(CFA, -5)
          CFI (cfiCond240) ?b14 Frame(CFA, -4)
          CFI (cfiCond240) ?b15 Frame(CFA, -3)
          CFI (cfiCond240) CFA SP+16
          CFI Block cfiPicker241 Using cfiCommon1
          CFI (cfiPicker241) NoFunction
          CFI (cfiPicker241) Picker
        CLRW      X
        LDW       S:?w0, X
        JPF       FLASH_ReadByte
          CFI EndBlock cfiCond228
          CFI EndBlock cfiCond229
          CFI EndBlock cfiCond230
          CFI EndBlock cfiCond231
          CFI EndBlock cfiCond232
          CFI EndBlock cfiCond233
          CFI EndBlock cfiCond234
          CFI EndBlock cfiCond235
          CFI EndBlock cfiCond236
          CFI EndBlock cfiCond237
          CFI EndBlock cfiCond238
          CFI EndBlock cfiCond239
          CFI EndBlock cfiCond240
          CFI EndBlock cfiPicker241

        SECTION `.far_func.text`:CODE:NOROOT(0)
?Subroutine28:
          CFI Block cfiCond242 Using cfiCommon0
          CFI Function UpdateDatasAdressInFlash
          CFI Conditional ??CrossCallReturnLabel_44
          CFI ?b12 Frame(CFA, -10)
          CFI ?b13 Frame(CFA, -9)
          CFI ?b14 Frame(CFA, -8)
          CFI ?b15 Frame(CFA, -7)
          CFI ?b8 Frame(CFA, -6)
          CFI ?b9 Frame(CFA, -5)
          CFI ?b10 Frame(CFA, -4)
          CFI ?b11 Frame(CFA, -3)
          CFI CFA SP+19
          CFI Block cfiCond243 Using cfiCommon0
          CFI (cfiCond243) Function ReadIdInFlash
          CFI (cfiCond243) Conditional ??CrossCallReturnLabel_45
          CFI (cfiCond243) ?b10 Frame(CFA, -9)
          CFI (cfiCond243) ?b8 Frame(CFA, -8)
          CFI (cfiCond243) ?b9 Frame(CFA, -7)
          CFI (cfiCond243) ?b12 Frame(CFA, -6)
          CFI (cfiCond243) ?b13 Frame(CFA, -5)
          CFI (cfiCond243) ?b14 Frame(CFA, -4)
          CFI (cfiCond243) ?b15 Frame(CFA, -3)
          CFI (cfiCond243) CFA SP+13
          CFI Block cfiPicker244 Using cfiCommon1
          CFI (cfiPicker244) NoFunction
          CFI (cfiPicker244) Picker
        CLRW      X
        EXG       A, XL
        LD        A, S:?b10
        EXG       A, XL
        LDW       S:?w7, X
        LDW       X, #0x7
        LDW       S:?w0, X
        LDW       X, S:?w7
        CALLF     ?Subroutine83
??CrossCallReturnLabel_175:
        LDW       S:?w4, X
        RETF
          CFI EndBlock cfiCond242
          CFI EndBlock cfiCond243
          CFI EndBlock cfiPicker244

        SECTION `.far_func.text`:CODE:NOROOT(0)
?Subroutine27:
          CFI Block cfiCond245 Using cfiCommon0
          CFI Function UpdateDatasAdressInFlash
          CFI Conditional ??CrossCallReturnLabel_42
          CFI ?b12 Frame(CFA, -10)
          CFI ?b13 Frame(CFA, -9)
          CFI ?b14 Frame(CFA, -8)
          CFI ?b15 Frame(CFA, -7)
          CFI ?b8 Frame(CFA, -6)
          CFI ?b9 Frame(CFA, -5)
          CFI ?b10 Frame(CFA, -4)
          CFI ?b11 Frame(CFA, -3)
          CFI CFA SP+19
          CFI Block cfiCond246 Using cfiCommon0
          CFI (cfiCond246) Function ReadIdInFlash
          CFI (cfiCond246) Conditional ??CrossCallReturnLabel_43
          CFI (cfiCond246) ?b10 Frame(CFA, -9)
          CFI (cfiCond246) ?b8 Frame(CFA, -8)
          CFI (cfiCond246) ?b9 Frame(CFA, -7)
          CFI (cfiCond246) ?b12 Frame(CFA, -6)
          CFI (cfiCond246) ?b13 Frame(CFA, -5)
          CFI (cfiCond246) ?b14 Frame(CFA, -4)
          CFI (cfiCond246) ?b15 Frame(CFA, -3)
          CFI (cfiCond246) CFA SP+13
          CFI Block cfiPicker247 Using cfiCommon1
          CFI (cfiPicker247) NoFunction
          CFI (cfiPicker247) Picker
        CALLF     ?Subroutine66
??CrossCallReturnLabel_127:
        LDW       X, #0xa
        LDW       S:?w0, X
        LDW       X, S:?w7
        CALLF     ??Subroutine90_0
??CrossCallReturnLabel_178:
        LDW       S:?w4, X
        CALLF     ?Subroutine69
??CrossCallReturnLabel_209:
        LD        [S:?w4.w], A
        CALLF     ??Subroutine96_0
??CrossCallReturnLabel_215:
        INCW      X
        LD        (X), A
        LDW       X, S:?w6
        CALLF     ?Subroutine66
??CrossCallReturnLabel_128:
        CALLF     ?Subroutine69
??CrossCallReturnLabel_208:
        LDW       X, S:?w4
        ADDW      X, #0x5
        CALLF     ?Subroutine67
??CrossCallReturnLabel_211:
        ADDW      X, #0x6
        CALLF     ?Subroutine67
??CrossCallReturnLabel_212:
        ADDW      X, #0x7
        CALLF     ?Subroutine67
??CrossCallReturnLabel_213:
        ADDW      X, #0x8
        CALLF     ?Subroutine67
??CrossCallReturnLabel_214:
        ADDW      X, #0x9
        LD        (X), A
        LDW       X, S:?w6
        ADDW      X, #0x3
        RETF
          CFI EndBlock cfiCond245
          CFI EndBlock cfiCond246
          CFI EndBlock cfiPicker247

        SECTION `.far_func.text`:CODE:NOROOT(0)
?Subroutine67:
          CFI Block cfiCond248 Using cfiCommon0
          CFI Function UpdateDatasAdressInFlash
          CFI Conditional ??CrossCallReturnLabel_211, ??CrossCallReturnLabel_42
          CFI ?b12 Frame(CFA, -10)
          CFI ?b13 Frame(CFA, -9)
          CFI ?b14 Frame(CFA, -8)
          CFI ?b15 Frame(CFA, -7)
          CFI ?b8 Frame(CFA, -6)
          CFI ?b9 Frame(CFA, -5)
          CFI ?b10 Frame(CFA, -4)
          CFI ?b11 Frame(CFA, -3)
          CFI CFA SP+22
          CFI Block cfiCond249 Using cfiCommon0
          CFI (cfiCond249) Function ReadIdInFlash
          CFI (cfiCond249) Conditional ??CrossCallReturnLabel_211, ??CrossCallReturnLabel_43
          CFI (cfiCond249) ?b10 Frame(CFA, -9)
          CFI (cfiCond249) ?b8 Frame(CFA, -8)
          CFI (cfiCond249) ?b9 Frame(CFA, -7)
          CFI (cfiCond249) ?b12 Frame(CFA, -6)
          CFI (cfiCond249) ?b13 Frame(CFA, -5)
          CFI (cfiCond249) ?b14 Frame(CFA, -4)
          CFI (cfiCond249) ?b15 Frame(CFA, -3)
          CFI (cfiCond249) CFA SP+16
          CFI Block cfiCond250 Using cfiCommon0
          CFI (cfiCond250) Function UpdateDatasAdressInFlash
          CFI (cfiCond250) Conditional ??CrossCallReturnLabel_212, ??CrossCallReturnLabel_42
          CFI (cfiCond250) ?b12 Frame(CFA, -10)
          CFI (cfiCond250) ?b13 Frame(CFA, -9)
          CFI (cfiCond250) ?b14 Frame(CFA, -8)
          CFI (cfiCond250) ?b15 Frame(CFA, -7)
          CFI (cfiCond250) ?b8 Frame(CFA, -6)
          CFI (cfiCond250) ?b9 Frame(CFA, -5)
          CFI (cfiCond250) ?b10 Frame(CFA, -4)
          CFI (cfiCond250) ?b11 Frame(CFA, -3)
          CFI (cfiCond250) CFA SP+22
          CFI Block cfiCond251 Using cfiCommon0
          CFI (cfiCond251) Function ReadIdInFlash
          CFI (cfiCond251) Conditional ??CrossCallReturnLabel_212, ??CrossCallReturnLabel_43
          CFI (cfiCond251) ?b10 Frame(CFA, -9)
          CFI (cfiCond251) ?b8 Frame(CFA, -8)
          CFI (cfiCond251) ?b9 Frame(CFA, -7)
          CFI (cfiCond251) ?b12 Frame(CFA, -6)
          CFI (cfiCond251) ?b13 Frame(CFA, -5)
          CFI (cfiCond251) ?b14 Frame(CFA, -4)
          CFI (cfiCond251) ?b15 Frame(CFA, -3)
          CFI (cfiCond251) CFA SP+16
          CFI Block cfiCond252 Using cfiCommon0
          CFI (cfiCond252) Function UpdateDatasAdressInFlash
          CFI (cfiCond252) Conditional ??CrossCallReturnLabel_213, ??CrossCallReturnLabel_42
          CFI (cfiCond252) ?b12 Frame(CFA, -10)
          CFI (cfiCond252) ?b13 Frame(CFA, -9)
          CFI (cfiCond252) ?b14 Frame(CFA, -8)
          CFI (cfiCond252) ?b15 Frame(CFA, -7)
          CFI (cfiCond252) ?b8 Frame(CFA, -6)
          CFI (cfiCond252) ?b9 Frame(CFA, -5)
          CFI (cfiCond252) ?b10 Frame(CFA, -4)
          CFI (cfiCond252) ?b11 Frame(CFA, -3)
          CFI (cfiCond252) CFA SP+22
          CFI Block cfiCond253 Using cfiCommon0
          CFI (cfiCond253) Function ReadIdInFlash
          CFI (cfiCond253) Conditional ??CrossCallReturnLabel_213, ??CrossCallReturnLabel_43
          CFI (cfiCond253) ?b10 Frame(CFA, -9)
          CFI (cfiCond253) ?b8 Frame(CFA, -8)
          CFI (cfiCond253) ?b9 Frame(CFA, -7)
          CFI (cfiCond253) ?b12 Frame(CFA, -6)
          CFI (cfiCond253) ?b13 Frame(CFA, -5)
          CFI (cfiCond253) ?b14 Frame(CFA, -4)
          CFI (cfiCond253) ?b15 Frame(CFA, -3)
          CFI (cfiCond253) CFA SP+16
          CFI Block cfiCond254 Using cfiCommon0
          CFI (cfiCond254) Function UpdateDatasAdressInFlash
          CFI (cfiCond254) Conditional ??CrossCallReturnLabel_214, ??CrossCallReturnLabel_42
          CFI (cfiCond254) ?b12 Frame(CFA, -10)
          CFI (cfiCond254) ?b13 Frame(CFA, -9)
          CFI (cfiCond254) ?b14 Frame(CFA, -8)
          CFI (cfiCond254) ?b15 Frame(CFA, -7)
          CFI (cfiCond254) ?b8 Frame(CFA, -6)
          CFI (cfiCond254) ?b9 Frame(CFA, -5)
          CFI (cfiCond254) ?b10 Frame(CFA, -4)
          CFI (cfiCond254) ?b11 Frame(CFA, -3)
          CFI (cfiCond254) CFA SP+22
          CFI Block cfiCond255 Using cfiCommon0
          CFI (cfiCond255) Function ReadIdInFlash
          CFI (cfiCond255) Conditional ??CrossCallReturnLabel_214, ??CrossCallReturnLabel_43
          CFI (cfiCond255) ?b10 Frame(CFA, -9)
          CFI (cfiCond255) ?b8 Frame(CFA, -8)
          CFI (cfiCond255) ?b9 Frame(CFA, -7)
          CFI (cfiCond255) ?b12 Frame(CFA, -6)
          CFI (cfiCond255) ?b13 Frame(CFA, -5)
          CFI (cfiCond255) ?b14 Frame(CFA, -4)
          CFI (cfiCond255) ?b15 Frame(CFA, -3)
          CFI (cfiCond255) CFA SP+16
          CFI Block cfiPicker256 Using cfiCommon1
          CFI (cfiPicker256) NoFunction
          CFI (cfiPicker256) Picker
        LD        (X), A
          CFI EndBlock cfiCond248
          CFI EndBlock cfiCond249
          CFI EndBlock cfiCond250
          CFI EndBlock cfiCond251
          CFI EndBlock cfiCond252
          CFI EndBlock cfiCond253
          CFI EndBlock cfiCond254
          CFI EndBlock cfiCond255
          CFI EndBlock cfiPicker256
        REQUIRE ??Subroutine96_0
        ;               // Fall through to label ??Subroutine96_0

        SECTION `.far_func.text`:CODE:NOROOT(0)
??Subroutine96_0:
          CFI Block cfiCond257 Using cfiCommon0
          CFI Function UpdateDatasAdressInFlash
          CFI Conditional ??CrossCallReturnLabel_215, ??CrossCallReturnLabel_42
          CFI ?b12 Frame(CFA, -10)
          CFI ?b13 Frame(CFA, -9)
          CFI ?b14 Frame(CFA, -8)
          CFI ?b15 Frame(CFA, -7)
          CFI ?b8 Frame(CFA, -6)
          CFI ?b9 Frame(CFA, -5)
          CFI ?b10 Frame(CFA, -4)
          CFI ?b11 Frame(CFA, -3)
          CFI CFA SP+22
          CFI Block cfiCond258 Using cfiCommon0
          CFI (cfiCond258) Function ReadIdInFlash
          CFI (cfiCond258) Conditional ??CrossCallReturnLabel_215, ??CrossCallReturnLabel_43
          CFI (cfiCond258) ?b10 Frame(CFA, -9)
          CFI (cfiCond258) ?b8 Frame(CFA, -8)
          CFI (cfiCond258) ?b9 Frame(CFA, -7)
          CFI (cfiCond258) ?b12 Frame(CFA, -6)
          CFI (cfiCond258) ?b13 Frame(CFA, -5)
          CFI (cfiCond258) ?b14 Frame(CFA, -4)
          CFI (cfiCond258) ?b15 Frame(CFA, -3)
          CFI (cfiCond258) CFA SP+16
          CFI Block cfiCond259 Using cfiCommon0
          CFI (cfiCond259) Function UpdateDatasAdressInFlash
          CFI (cfiCond259) Conditional ??CrossCallReturnLabel_211, ??CrossCallReturnLabel_42
          CFI (cfiCond259) ?b12 Frame(CFA, -10)
          CFI (cfiCond259) ?b13 Frame(CFA, -9)
          CFI (cfiCond259) ?b14 Frame(CFA, -8)
          CFI (cfiCond259) ?b15 Frame(CFA, -7)
          CFI (cfiCond259) ?b8 Frame(CFA, -6)
          CFI (cfiCond259) ?b9 Frame(CFA, -5)
          CFI (cfiCond259) ?b10 Frame(CFA, -4)
          CFI (cfiCond259) ?b11 Frame(CFA, -3)
          CFI (cfiCond259) CFA SP+22
          CFI Block cfiCond260 Using cfiCommon0
          CFI (cfiCond260) Function ReadIdInFlash
          CFI (cfiCond260) Conditional ??CrossCallReturnLabel_211, ??CrossCallReturnLabel_43
          CFI (cfiCond260) ?b10 Frame(CFA, -9)
          CFI (cfiCond260) ?b8 Frame(CFA, -8)
          CFI (cfiCond260) ?b9 Frame(CFA, -7)
          CFI (cfiCond260) ?b12 Frame(CFA, -6)
          CFI (cfiCond260) ?b13 Frame(CFA, -5)
          CFI (cfiCond260) ?b14 Frame(CFA, -4)
          CFI (cfiCond260) ?b15 Frame(CFA, -3)
          CFI (cfiCond260) CFA SP+16
          CFI Block cfiCond261 Using cfiCommon0
          CFI (cfiCond261) Function UpdateDatasAdressInFlash
          CFI (cfiCond261) Conditional ??CrossCallReturnLabel_212, ??CrossCallReturnLabel_42
          CFI (cfiCond261) ?b12 Frame(CFA, -10)
          CFI (cfiCond261) ?b13 Frame(CFA, -9)
          CFI (cfiCond261) ?b14 Frame(CFA, -8)
          CFI (cfiCond261) ?b15 Frame(CFA, -7)
          CFI (cfiCond261) ?b8 Frame(CFA, -6)
          CFI (cfiCond261) ?b9 Frame(CFA, -5)
          CFI (cfiCond261) ?b10 Frame(CFA, -4)
          CFI (cfiCond261) ?b11 Frame(CFA, -3)
          CFI (cfiCond261) CFA SP+22
          CFI Block cfiCond262 Using cfiCommon0
          CFI (cfiCond262) Function ReadIdInFlash
          CFI (cfiCond262) Conditional ??CrossCallReturnLabel_212, ??CrossCallReturnLabel_43
          CFI (cfiCond262) ?b10 Frame(CFA, -9)
          CFI (cfiCond262) ?b8 Frame(CFA, -8)
          CFI (cfiCond262) ?b9 Frame(CFA, -7)
          CFI (cfiCond262) ?b12 Frame(CFA, -6)
          CFI (cfiCond262) ?b13 Frame(CFA, -5)
          CFI (cfiCond262) ?b14 Frame(CFA, -4)
          CFI (cfiCond262) ?b15 Frame(CFA, -3)
          CFI (cfiCond262) CFA SP+16
          CFI Block cfiCond263 Using cfiCommon0
          CFI (cfiCond263) Function UpdateDatasAdressInFlash
          CFI (cfiCond263) Conditional ??CrossCallReturnLabel_213, ??CrossCallReturnLabel_42
          CFI (cfiCond263) ?b12 Frame(CFA, -10)
          CFI (cfiCond263) ?b13 Frame(CFA, -9)
          CFI (cfiCond263) ?b14 Frame(CFA, -8)
          CFI (cfiCond263) ?b15 Frame(CFA, -7)
          CFI (cfiCond263) ?b8 Frame(CFA, -6)
          CFI (cfiCond263) ?b9 Frame(CFA, -5)
          CFI (cfiCond263) ?b10 Frame(CFA, -4)
          CFI (cfiCond263) ?b11 Frame(CFA, -3)
          CFI (cfiCond263) CFA SP+22
          CFI Block cfiCond264 Using cfiCommon0
          CFI (cfiCond264) Function ReadIdInFlash
          CFI (cfiCond264) Conditional ??CrossCallReturnLabel_213, ??CrossCallReturnLabel_43
          CFI (cfiCond264) ?b10 Frame(CFA, -9)
          CFI (cfiCond264) ?b8 Frame(CFA, -8)
          CFI (cfiCond264) ?b9 Frame(CFA, -7)
          CFI (cfiCond264) ?b12 Frame(CFA, -6)
          CFI (cfiCond264) ?b13 Frame(CFA, -5)
          CFI (cfiCond264) ?b14 Frame(CFA, -4)
          CFI (cfiCond264) ?b15 Frame(CFA, -3)
          CFI (cfiCond264) CFA SP+16
          CFI Block cfiCond265 Using cfiCommon0
          CFI (cfiCond265) Function UpdateDatasAdressInFlash
          CFI (cfiCond265) Conditional ??CrossCallReturnLabel_214, ??CrossCallReturnLabel_42
          CFI (cfiCond265) ?b12 Frame(CFA, -10)
          CFI (cfiCond265) ?b13 Frame(CFA, -9)
          CFI (cfiCond265) ?b14 Frame(CFA, -8)
          CFI (cfiCond265) ?b15 Frame(CFA, -7)
          CFI (cfiCond265) ?b8 Frame(CFA, -6)
          CFI (cfiCond265) ?b9 Frame(CFA, -5)
          CFI (cfiCond265) ?b10 Frame(CFA, -4)
          CFI (cfiCond265) ?b11 Frame(CFA, -3)
          CFI (cfiCond265) CFA SP+22
          CFI Block cfiCond266 Using cfiCommon0
          CFI (cfiCond266) Function ReadIdInFlash
          CFI (cfiCond266) Conditional ??CrossCallReturnLabel_214, ??CrossCallReturnLabel_43
          CFI (cfiCond266) ?b10 Frame(CFA, -9)
          CFI (cfiCond266) ?b8 Frame(CFA, -8)
          CFI (cfiCond266) ?b9 Frame(CFA, -7)
          CFI (cfiCond266) ?b12 Frame(CFA, -6)
          CFI (cfiCond266) ?b13 Frame(CFA, -5)
          CFI (cfiCond266) ?b14 Frame(CFA, -4)
          CFI (cfiCond266) ?b15 Frame(CFA, -3)
          CFI (cfiCond266) CFA SP+16
          CFI Block cfiPicker267 Using cfiCommon1
          CFI (cfiPicker267) NoFunction
          CFI (cfiPicker267) Picker
        CALLF     ??Subroutine97_0
??CrossCallReturnLabel_218:
        RETF
          CFI EndBlock cfiCond257
          CFI EndBlock cfiCond258
          CFI EndBlock cfiCond259
          CFI EndBlock cfiCond260
          CFI EndBlock cfiCond261
          CFI EndBlock cfiCond262
          CFI EndBlock cfiCond263
          CFI EndBlock cfiCond264
          CFI EndBlock cfiCond265
          CFI EndBlock cfiCond266
          CFI EndBlock cfiPicker267

        SECTION `.far_func.text`:CODE:NOROOT(0)
?Subroutine81:
          CFI Block cfiCond268 Using cfiCommon0
          CFI Function UpdateDatasAdressInFlash
          CFI Conditional ??CrossCallReturnLabel_216, ??CrossCallReturnLabel_127, ??CrossCallReturnLabel_42
          CFI ?b12 Frame(CFA, -10)
          CFI ?b13 Frame(CFA, -9)
          CFI ?b14 Frame(CFA, -8)
          CFI ?b15 Frame(CFA, -7)
          CFI ?b8 Frame(CFA, -6)
          CFI ?b9 Frame(CFA, -5)
          CFI ?b10 Frame(CFA, -4)
          CFI ?b11 Frame(CFA, -3)
          CFI CFA SP+25
          CFI Block cfiCond269 Using cfiCommon0
          CFI (cfiCond269) Function ReadIdInFlash
          CFI (cfiCond269) Conditional ??CrossCallReturnLabel_216, ??CrossCallReturnLabel_127, ??CrossCallReturnLabel_43
          CFI (cfiCond269) ?b10 Frame(CFA, -9)
          CFI (cfiCond269) ?b8 Frame(CFA, -8)
          CFI (cfiCond269) ?b9 Frame(CFA, -7)
          CFI (cfiCond269) ?b12 Frame(CFA, -6)
          CFI (cfiCond269) ?b13 Frame(CFA, -5)
          CFI (cfiCond269) ?b14 Frame(CFA, -4)
          CFI (cfiCond269) ?b15 Frame(CFA, -3)
          CFI (cfiCond269) CFA SP+19
          CFI Block cfiCond270 Using cfiCommon0
          CFI (cfiCond270) Function UpdateDatasAdressInFlash
          CFI (cfiCond270) Conditional ??CrossCallReturnLabel_216, ??CrossCallReturnLabel_128, ??CrossCallReturnLabel_42
          CFI (cfiCond270) ?b12 Frame(CFA, -10)
          CFI (cfiCond270) ?b13 Frame(CFA, -9)
          CFI (cfiCond270) ?b14 Frame(CFA, -8)
          CFI (cfiCond270) ?b15 Frame(CFA, -7)
          CFI (cfiCond270) ?b8 Frame(CFA, -6)
          CFI (cfiCond270) ?b9 Frame(CFA, -5)
          CFI (cfiCond270) ?b10 Frame(CFA, -4)
          CFI (cfiCond270) ?b11 Frame(CFA, -3)
          CFI (cfiCond270) CFA SP+25
          CFI Block cfiCond271 Using cfiCommon0
          CFI (cfiCond271) Function ReadIdInFlash
          CFI (cfiCond271) Conditional ??CrossCallReturnLabel_216, ??CrossCallReturnLabel_128, ??CrossCallReturnLabel_43
          CFI (cfiCond271) ?b10 Frame(CFA, -9)
          CFI (cfiCond271) ?b8 Frame(CFA, -8)
          CFI (cfiCond271) ?b9 Frame(CFA, -7)
          CFI (cfiCond271) ?b12 Frame(CFA, -6)
          CFI (cfiCond271) ?b13 Frame(CFA, -5)
          CFI (cfiCond271) ?b14 Frame(CFA, -4)
          CFI (cfiCond271) ?b15 Frame(CFA, -3)
          CFI (cfiCond271) CFA SP+19
          CFI Block cfiCond272 Using cfiCommon0
          CFI (cfiCond272) Function UpdateDatasAdressInFlash
          CFI (cfiCond272) Conditional ??CrossCallReturnLabel_217, ??CrossCallReturnLabel_127, ??CrossCallReturnLabel_42
          CFI (cfiCond272) ?b12 Frame(CFA, -10)
          CFI (cfiCond272) ?b13 Frame(CFA, -9)
          CFI (cfiCond272) ?b14 Frame(CFA, -8)
          CFI (cfiCond272) ?b15 Frame(CFA, -7)
          CFI (cfiCond272) ?b8 Frame(CFA, -6)
          CFI (cfiCond272) ?b9 Frame(CFA, -5)
          CFI (cfiCond272) ?b10 Frame(CFA, -4)
          CFI (cfiCond272) ?b11 Frame(CFA, -3)
          CFI (cfiCond272) CFA SP+25
          CFI Block cfiCond273 Using cfiCommon0
          CFI (cfiCond273) Function ReadIdInFlash
          CFI (cfiCond273) Conditional ??CrossCallReturnLabel_217, ??CrossCallReturnLabel_127, ??CrossCallReturnLabel_43
          CFI (cfiCond273) ?b10 Frame(CFA, -9)
          CFI (cfiCond273) ?b8 Frame(CFA, -8)
          CFI (cfiCond273) ?b9 Frame(CFA, -7)
          CFI (cfiCond273) ?b12 Frame(CFA, -6)
          CFI (cfiCond273) ?b13 Frame(CFA, -5)
          CFI (cfiCond273) ?b14 Frame(CFA, -4)
          CFI (cfiCond273) ?b15 Frame(CFA, -3)
          CFI (cfiCond273) CFA SP+19
          CFI Block cfiCond274 Using cfiCommon0
          CFI (cfiCond274) Function UpdateDatasAdressInFlash
          CFI (cfiCond274) Conditional ??CrossCallReturnLabel_217, ??CrossCallReturnLabel_128, ??CrossCallReturnLabel_42
          CFI (cfiCond274) ?b12 Frame(CFA, -10)
          CFI (cfiCond274) ?b13 Frame(CFA, -9)
          CFI (cfiCond274) ?b14 Frame(CFA, -8)
          CFI (cfiCond274) ?b15 Frame(CFA, -7)
          CFI (cfiCond274) ?b8 Frame(CFA, -6)
          CFI (cfiCond274) ?b9 Frame(CFA, -5)
          CFI (cfiCond274) ?b10 Frame(CFA, -4)
          CFI (cfiCond274) ?b11 Frame(CFA, -3)
          CFI (cfiCond274) CFA SP+25
          CFI Block cfiCond275 Using cfiCommon0
          CFI (cfiCond275) Function ReadIdInFlash
          CFI (cfiCond275) Conditional ??CrossCallReturnLabel_217, ??CrossCallReturnLabel_128, ??CrossCallReturnLabel_43
          CFI (cfiCond275) ?b10 Frame(CFA, -9)
          CFI (cfiCond275) ?b8 Frame(CFA, -8)
          CFI (cfiCond275) ?b9 Frame(CFA, -7)
          CFI (cfiCond275) ?b12 Frame(CFA, -6)
          CFI (cfiCond275) ?b13 Frame(CFA, -5)
          CFI (cfiCond275) ?b14 Frame(CFA, -4)
          CFI (cfiCond275) ?b15 Frame(CFA, -3)
          CFI (cfiCond275) CFA SP+19
          CFI Block cfiPicker276 Using cfiCommon1
          CFI (cfiPicker276) NoFunction
          CFI (cfiPicker276) Picker
        LD        (X), A
          CFI EndBlock cfiCond268
          CFI EndBlock cfiCond269
          CFI EndBlock cfiCond270
          CFI EndBlock cfiCond271
          CFI EndBlock cfiCond272
          CFI EndBlock cfiCond273
          CFI EndBlock cfiCond274
          CFI EndBlock cfiCond275
          CFI EndBlock cfiPicker276
        REQUIRE ??Subroutine97_0
        ;               // Fall through to label ??Subroutine97_0

        SECTION `.far_func.text`:CODE:NOROOT(0)
??Subroutine97_0:
          CFI Block cfiCond277 Using cfiCommon0
          CFI Function UpdateDatasAdressInFlash
          CFI Conditional ??CrossCallReturnLabel_218, ??CrossCallReturnLabel_211, ??CrossCallReturnLabel_42
          CFI ?b12 Frame(CFA, -10)
          CFI ?b13 Frame(CFA, -9)
          CFI ?b14 Frame(CFA, -8)
          CFI ?b15 Frame(CFA, -7)
          CFI ?b8 Frame(CFA, -6)
          CFI ?b9 Frame(CFA, -5)
          CFI ?b10 Frame(CFA, -4)
          CFI ?b11 Frame(CFA, -3)
          CFI CFA SP+25
          CFI Block cfiCond278 Using cfiCommon0
          CFI (cfiCond278) Function ReadIdInFlash
          CFI (cfiCond278) Conditional ??CrossCallReturnLabel_218, ??CrossCallReturnLabel_211, ??CrossCallReturnLabel_43
          CFI (cfiCond278) ?b10 Frame(CFA, -9)
          CFI (cfiCond278) ?b8 Frame(CFA, -8)
          CFI (cfiCond278) ?b9 Frame(CFA, -7)
          CFI (cfiCond278) ?b12 Frame(CFA, -6)
          CFI (cfiCond278) ?b13 Frame(CFA, -5)
          CFI (cfiCond278) ?b14 Frame(CFA, -4)
          CFI (cfiCond278) ?b15 Frame(CFA, -3)
          CFI (cfiCond278) CFA SP+19
          CFI Block cfiCond279 Using cfiCommon0
          CFI (cfiCond279) Function UpdateDatasAdressInFlash
          CFI (cfiCond279) Conditional ??CrossCallReturnLabel_218, ??CrossCallReturnLabel_212, ??CrossCallReturnLabel_42
          CFI (cfiCond279) ?b12 Frame(CFA, -10)
          CFI (cfiCond279) ?b13 Frame(CFA, -9)
          CFI (cfiCond279) ?b14 Frame(CFA, -8)
          CFI (cfiCond279) ?b15 Frame(CFA, -7)
          CFI (cfiCond279) ?b8 Frame(CFA, -6)
          CFI (cfiCond279) ?b9 Frame(CFA, -5)
          CFI (cfiCond279) ?b10 Frame(CFA, -4)
          CFI (cfiCond279) ?b11 Frame(CFA, -3)
          CFI (cfiCond279) CFA SP+25
          CFI Block cfiCond280 Using cfiCommon0
          CFI (cfiCond280) Function ReadIdInFlash
          CFI (cfiCond280) Conditional ??CrossCallReturnLabel_218, ??CrossCallReturnLabel_212, ??CrossCallReturnLabel_43
          CFI (cfiCond280) ?b10 Frame(CFA, -9)
          CFI (cfiCond280) ?b8 Frame(CFA, -8)
          CFI (cfiCond280) ?b9 Frame(CFA, -7)
          CFI (cfiCond280) ?b12 Frame(CFA, -6)
          CFI (cfiCond280) ?b13 Frame(CFA, -5)
          CFI (cfiCond280) ?b14 Frame(CFA, -4)
          CFI (cfiCond280) ?b15 Frame(CFA, -3)
          CFI (cfiCond280) CFA SP+19
          CFI Block cfiCond281 Using cfiCommon0
          CFI (cfiCond281) Function UpdateDatasAdressInFlash
          CFI (cfiCond281) Conditional ??CrossCallReturnLabel_218, ??CrossCallReturnLabel_213, ??CrossCallReturnLabel_42
          CFI (cfiCond281) ?b12 Frame(CFA, -10)
          CFI (cfiCond281) ?b13 Frame(CFA, -9)
          CFI (cfiCond281) ?b14 Frame(CFA, -8)
          CFI (cfiCond281) ?b15 Frame(CFA, -7)
          CFI (cfiCond281) ?b8 Frame(CFA, -6)
          CFI (cfiCond281) ?b9 Frame(CFA, -5)
          CFI (cfiCond281) ?b10 Frame(CFA, -4)
          CFI (cfiCond281) ?b11 Frame(CFA, -3)
          CFI (cfiCond281) CFA SP+25
          CFI Block cfiCond282 Using cfiCommon0
          CFI (cfiCond282) Function ReadIdInFlash
          CFI (cfiCond282) Conditional ??CrossCallReturnLabel_218, ??CrossCallReturnLabel_213, ??CrossCallReturnLabel_43
          CFI (cfiCond282) ?b10 Frame(CFA, -9)
          CFI (cfiCond282) ?b8 Frame(CFA, -8)
          CFI (cfiCond282) ?b9 Frame(CFA, -7)
          CFI (cfiCond282) ?b12 Frame(CFA, -6)
          CFI (cfiCond282) ?b13 Frame(CFA, -5)
          CFI (cfiCond282) ?b14 Frame(CFA, -4)
          CFI (cfiCond282) ?b15 Frame(CFA, -3)
          CFI (cfiCond282) CFA SP+19
          CFI Block cfiCond283 Using cfiCommon0
          CFI (cfiCond283) Function UpdateDatasAdressInFlash
          CFI (cfiCond283) Conditional ??CrossCallReturnLabel_218, ??CrossCallReturnLabel_214, ??CrossCallReturnLabel_42
          CFI (cfiCond283) ?b12 Frame(CFA, -10)
          CFI (cfiCond283) ?b13 Frame(CFA, -9)
          CFI (cfiCond283) ?b14 Frame(CFA, -8)
          CFI (cfiCond283) ?b15 Frame(CFA, -7)
          CFI (cfiCond283) ?b8 Frame(CFA, -6)
          CFI (cfiCond283) ?b9 Frame(CFA, -5)
          CFI (cfiCond283) ?b10 Frame(CFA, -4)
          CFI (cfiCond283) ?b11 Frame(CFA, -3)
          CFI (cfiCond283) CFA SP+25
          CFI Block cfiCond284 Using cfiCommon0
          CFI (cfiCond284) Function ReadIdInFlash
          CFI (cfiCond284) Conditional ??CrossCallReturnLabel_218, ??CrossCallReturnLabel_214, ??CrossCallReturnLabel_43
          CFI (cfiCond284) ?b10 Frame(CFA, -9)
          CFI (cfiCond284) ?b8 Frame(CFA, -8)
          CFI (cfiCond284) ?b9 Frame(CFA, -7)
          CFI (cfiCond284) ?b12 Frame(CFA, -6)
          CFI (cfiCond284) ?b13 Frame(CFA, -5)
          CFI (cfiCond284) ?b14 Frame(CFA, -4)
          CFI (cfiCond284) ?b15 Frame(CFA, -3)
          CFI (cfiCond284) CFA SP+19
          CFI Block cfiCond285 Using cfiCommon0
          CFI (cfiCond285) Function UpdateDatasAdressInFlash
          CFI (cfiCond285) Conditional ??CrossCallReturnLabel_218, ??CrossCallReturnLabel_215, ??CrossCallReturnLabel_42
          CFI (cfiCond285) ?b12 Frame(CFA, -10)
          CFI (cfiCond285) ?b13 Frame(CFA, -9)
          CFI (cfiCond285) ?b14 Frame(CFA, -8)
          CFI (cfiCond285) ?b15 Frame(CFA, -7)
          CFI (cfiCond285) ?b8 Frame(CFA, -6)
          CFI (cfiCond285) ?b9 Frame(CFA, -5)
          CFI (cfiCond285) ?b10 Frame(CFA, -4)
          CFI (cfiCond285) ?b11 Frame(CFA, -3)
          CFI (cfiCond285) CFA SP+25
          CFI Block cfiCond286 Using cfiCommon0
          CFI (cfiCond286) Function ReadIdInFlash
          CFI (cfiCond286) Conditional ??CrossCallReturnLabel_218, ??CrossCallReturnLabel_215, ??CrossCallReturnLabel_43
          CFI (cfiCond286) ?b10 Frame(CFA, -9)
          CFI (cfiCond286) ?b8 Frame(CFA, -8)
          CFI (cfiCond286) ?b9 Frame(CFA, -7)
          CFI (cfiCond286) ?b12 Frame(CFA, -6)
          CFI (cfiCond286) ?b13 Frame(CFA, -5)
          CFI (cfiCond286) ?b14 Frame(CFA, -4)
          CFI (cfiCond286) ?b15 Frame(CFA, -3)
          CFI (cfiCond286) CFA SP+19
          CFI Block cfiCond287 Using cfiCommon0
          CFI (cfiCond287) Function UpdateDatasAdressInFlash
          CFI (cfiCond287) Conditional ??CrossCallReturnLabel_216, ??CrossCallReturnLabel_127, ??CrossCallReturnLabel_42
          CFI (cfiCond287) ?b12 Frame(CFA, -10)
          CFI (cfiCond287) ?b13 Frame(CFA, -9)
          CFI (cfiCond287) ?b14 Frame(CFA, -8)
          CFI (cfiCond287) ?b15 Frame(CFA, -7)
          CFI (cfiCond287) ?b8 Frame(CFA, -6)
          CFI (cfiCond287) ?b9 Frame(CFA, -5)
          CFI (cfiCond287) ?b10 Frame(CFA, -4)
          CFI (cfiCond287) ?b11 Frame(CFA, -3)
          CFI (cfiCond287) CFA SP+25
          CFI Block cfiCond288 Using cfiCommon0
          CFI (cfiCond288) Function ReadIdInFlash
          CFI (cfiCond288) Conditional ??CrossCallReturnLabel_216, ??CrossCallReturnLabel_127, ??CrossCallReturnLabel_43
          CFI (cfiCond288) ?b10 Frame(CFA, -9)
          CFI (cfiCond288) ?b8 Frame(CFA, -8)
          CFI (cfiCond288) ?b9 Frame(CFA, -7)
          CFI (cfiCond288) ?b12 Frame(CFA, -6)
          CFI (cfiCond288) ?b13 Frame(CFA, -5)
          CFI (cfiCond288) ?b14 Frame(CFA, -4)
          CFI (cfiCond288) ?b15 Frame(CFA, -3)
          CFI (cfiCond288) CFA SP+19
          CFI Block cfiCond289 Using cfiCommon0
          CFI (cfiCond289) Function UpdateDatasAdressInFlash
          CFI (cfiCond289) Conditional ??CrossCallReturnLabel_216, ??CrossCallReturnLabel_128, ??CrossCallReturnLabel_42
          CFI (cfiCond289) ?b12 Frame(CFA, -10)
          CFI (cfiCond289) ?b13 Frame(CFA, -9)
          CFI (cfiCond289) ?b14 Frame(CFA, -8)
          CFI (cfiCond289) ?b15 Frame(CFA, -7)
          CFI (cfiCond289) ?b8 Frame(CFA, -6)
          CFI (cfiCond289) ?b9 Frame(CFA, -5)
          CFI (cfiCond289) ?b10 Frame(CFA, -4)
          CFI (cfiCond289) ?b11 Frame(CFA, -3)
          CFI (cfiCond289) CFA SP+25
          CFI Block cfiCond290 Using cfiCommon0
          CFI (cfiCond290) Function ReadIdInFlash
          CFI (cfiCond290) Conditional ??CrossCallReturnLabel_216, ??CrossCallReturnLabel_128, ??CrossCallReturnLabel_43
          CFI (cfiCond290) ?b10 Frame(CFA, -9)
          CFI (cfiCond290) ?b8 Frame(CFA, -8)
          CFI (cfiCond290) ?b9 Frame(CFA, -7)
          CFI (cfiCond290) ?b12 Frame(CFA, -6)
          CFI (cfiCond290) ?b13 Frame(CFA, -5)
          CFI (cfiCond290) ?b14 Frame(CFA, -4)
          CFI (cfiCond290) ?b15 Frame(CFA, -3)
          CFI (cfiCond290) CFA SP+19
          CFI Block cfiCond291 Using cfiCommon0
          CFI (cfiCond291) Function UpdateDatasAdressInFlash
          CFI (cfiCond291) Conditional ??CrossCallReturnLabel_217, ??CrossCallReturnLabel_127, ??CrossCallReturnLabel_42
          CFI (cfiCond291) ?b12 Frame(CFA, -10)
          CFI (cfiCond291) ?b13 Frame(CFA, -9)
          CFI (cfiCond291) ?b14 Frame(CFA, -8)
          CFI (cfiCond291) ?b15 Frame(CFA, -7)
          CFI (cfiCond291) ?b8 Frame(CFA, -6)
          CFI (cfiCond291) ?b9 Frame(CFA, -5)
          CFI (cfiCond291) ?b10 Frame(CFA, -4)
          CFI (cfiCond291) ?b11 Frame(CFA, -3)
          CFI (cfiCond291) CFA SP+25
          CFI Block cfiCond292 Using cfiCommon0
          CFI (cfiCond292) Function ReadIdInFlash
          CFI (cfiCond292) Conditional ??CrossCallReturnLabel_217, ??CrossCallReturnLabel_127, ??CrossCallReturnLabel_43
          CFI (cfiCond292) ?b10 Frame(CFA, -9)
          CFI (cfiCond292) ?b8 Frame(CFA, -8)
          CFI (cfiCond292) ?b9 Frame(CFA, -7)
          CFI (cfiCond292) ?b12 Frame(CFA, -6)
          CFI (cfiCond292) ?b13 Frame(CFA, -5)
          CFI (cfiCond292) ?b14 Frame(CFA, -4)
          CFI (cfiCond292) ?b15 Frame(CFA, -3)
          CFI (cfiCond292) CFA SP+19
          CFI Block cfiCond293 Using cfiCommon0
          CFI (cfiCond293) Function UpdateDatasAdressInFlash
          CFI (cfiCond293) Conditional ??CrossCallReturnLabel_217, ??CrossCallReturnLabel_128, ??CrossCallReturnLabel_42
          CFI (cfiCond293) ?b12 Frame(CFA, -10)
          CFI (cfiCond293) ?b13 Frame(CFA, -9)
          CFI (cfiCond293) ?b14 Frame(CFA, -8)
          CFI (cfiCond293) ?b15 Frame(CFA, -7)
          CFI (cfiCond293) ?b8 Frame(CFA, -6)
          CFI (cfiCond293) ?b9 Frame(CFA, -5)
          CFI (cfiCond293) ?b10 Frame(CFA, -4)
          CFI (cfiCond293) ?b11 Frame(CFA, -3)
          CFI (cfiCond293) CFA SP+25
          CFI Block cfiCond294 Using cfiCommon0
          CFI (cfiCond294) Function ReadIdInFlash
          CFI (cfiCond294) Conditional ??CrossCallReturnLabel_217, ??CrossCallReturnLabel_128, ??CrossCallReturnLabel_43
          CFI (cfiCond294) ?b10 Frame(CFA, -9)
          CFI (cfiCond294) ?b8 Frame(CFA, -8)
          CFI (cfiCond294) ?b9 Frame(CFA, -7)
          CFI (cfiCond294) ?b12 Frame(CFA, -6)
          CFI (cfiCond294) ?b13 Frame(CFA, -5)
          CFI (cfiCond294) ?b14 Frame(CFA, -4)
          CFI (cfiCond294) ?b15 Frame(CFA, -3)
          CFI (cfiCond294) CFA SP+19
          CFI Block cfiPicker295 Using cfiCommon1
          CFI (cfiPicker295) NoFunction
          CFI (cfiPicker295) Picker
        LDW       X, S:?w6
          CFI EndBlock cfiCond277
          CFI EndBlock cfiCond278
          CFI EndBlock cfiCond279
          CFI EndBlock cfiCond280
          CFI EndBlock cfiCond281
          CFI EndBlock cfiCond282
          CFI EndBlock cfiCond283
          CFI EndBlock cfiCond284
          CFI EndBlock cfiCond285
          CFI EndBlock cfiCond286
          CFI EndBlock cfiCond287
          CFI EndBlock cfiCond288
          CFI EndBlock cfiCond289
          CFI EndBlock cfiCond290
          CFI EndBlock cfiCond291
          CFI EndBlock cfiCond292
          CFI EndBlock cfiCond293
          CFI EndBlock cfiCond294
          CFI EndBlock cfiPicker295
        REQUIRE ??Subroutine98_0
        ;               // Fall through to label ??Subroutine98_0

        SECTION `.far_func.text`:CODE:NOROOT(0)
??Subroutine98_0:
          CFI Block cfiCond296 Using cfiCommon0
          CFI Function UpdateDatasAdressInFlash
          CFI Conditional ??CrossCallReturnLabel_219, ??CrossCallReturnLabel_127, ??CrossCallReturnLabel_42
          CFI ?b12 Frame(CFA, -10)
          CFI ?b13 Frame(CFA, -9)
          CFI ?b14 Frame(CFA, -8)
          CFI ?b15 Frame(CFA, -7)
          CFI ?b8 Frame(CFA, -6)
          CFI ?b9 Frame(CFA, -5)
          CFI ?b10 Frame(CFA, -4)
          CFI ?b11 Frame(CFA, -3)
          CFI CFA SP+25
          CFI Block cfiCond297 Using cfiCommon0
          CFI (cfiCond297) Function ReadIdInFlash
          CFI (cfiCond297) Conditional ??CrossCallReturnLabel_219, ??CrossCallReturnLabel_127, ??CrossCallReturnLabel_43
          CFI (cfiCond297) ?b10 Frame(CFA, -9)
          CFI (cfiCond297) ?b8 Frame(CFA, -8)
          CFI (cfiCond297) ?b9 Frame(CFA, -7)
          CFI (cfiCond297) ?b12 Frame(CFA, -6)
          CFI (cfiCond297) ?b13 Frame(CFA, -5)
          CFI (cfiCond297) ?b14 Frame(CFA, -4)
          CFI (cfiCond297) ?b15 Frame(CFA, -3)
          CFI (cfiCond297) CFA SP+19
          CFI Block cfiCond298 Using cfiCommon0
          CFI (cfiCond298) Function UpdateDatasAdressInFlash
          CFI (cfiCond298) Conditional ??CrossCallReturnLabel_219, ??CrossCallReturnLabel_128, ??CrossCallReturnLabel_42
          CFI (cfiCond298) ?b12 Frame(CFA, -10)
          CFI (cfiCond298) ?b13 Frame(CFA, -9)
          CFI (cfiCond298) ?b14 Frame(CFA, -8)
          CFI (cfiCond298) ?b15 Frame(CFA, -7)
          CFI (cfiCond298) ?b8 Frame(CFA, -6)
          CFI (cfiCond298) ?b9 Frame(CFA, -5)
          CFI (cfiCond298) ?b10 Frame(CFA, -4)
          CFI (cfiCond298) ?b11 Frame(CFA, -3)
          CFI (cfiCond298) CFA SP+25
          CFI Block cfiCond299 Using cfiCommon0
          CFI (cfiCond299) Function ReadIdInFlash
          CFI (cfiCond299) Conditional ??CrossCallReturnLabel_219, ??CrossCallReturnLabel_128, ??CrossCallReturnLabel_43
          CFI (cfiCond299) ?b10 Frame(CFA, -9)
          CFI (cfiCond299) ?b8 Frame(CFA, -8)
          CFI (cfiCond299) ?b9 Frame(CFA, -7)
          CFI (cfiCond299) ?b12 Frame(CFA, -6)
          CFI (cfiCond299) ?b13 Frame(CFA, -5)
          CFI (cfiCond299) ?b14 Frame(CFA, -4)
          CFI (cfiCond299) ?b15 Frame(CFA, -3)
          CFI (cfiCond299) CFA SP+19
          CFI Block cfiCond300 Using cfiCommon0
          CFI (cfiCond300) Function UpdateDatasAdressInFlash
          CFI (cfiCond300) Conditional ??CrossCallReturnLabel_218, ??CrossCallReturnLabel_211, ??CrossCallReturnLabel_42
          CFI (cfiCond300) ?b12 Frame(CFA, -10)
          CFI (cfiCond300) ?b13 Frame(CFA, -9)
          CFI (cfiCond300) ?b14 Frame(CFA, -8)
          CFI (cfiCond300) ?b15 Frame(CFA, -7)
          CFI (cfiCond300) ?b8 Frame(CFA, -6)
          CFI (cfiCond300) ?b9 Frame(CFA, -5)
          CFI (cfiCond300) ?b10 Frame(CFA, -4)
          CFI (cfiCond300) ?b11 Frame(CFA, -3)
          CFI (cfiCond300) CFA SP+25
          CFI Block cfiCond301 Using cfiCommon0
          CFI (cfiCond301) Function ReadIdInFlash
          CFI (cfiCond301) Conditional ??CrossCallReturnLabel_218, ??CrossCallReturnLabel_211, ??CrossCallReturnLabel_43
          CFI (cfiCond301) ?b10 Frame(CFA, -9)
          CFI (cfiCond301) ?b8 Frame(CFA, -8)
          CFI (cfiCond301) ?b9 Frame(CFA, -7)
          CFI (cfiCond301) ?b12 Frame(CFA, -6)
          CFI (cfiCond301) ?b13 Frame(CFA, -5)
          CFI (cfiCond301) ?b14 Frame(CFA, -4)
          CFI (cfiCond301) ?b15 Frame(CFA, -3)
          CFI (cfiCond301) CFA SP+19
          CFI Block cfiCond302 Using cfiCommon0
          CFI (cfiCond302) Function UpdateDatasAdressInFlash
          CFI (cfiCond302) Conditional ??CrossCallReturnLabel_218, ??CrossCallReturnLabel_212, ??CrossCallReturnLabel_42
          CFI (cfiCond302) ?b12 Frame(CFA, -10)
          CFI (cfiCond302) ?b13 Frame(CFA, -9)
          CFI (cfiCond302) ?b14 Frame(CFA, -8)
          CFI (cfiCond302) ?b15 Frame(CFA, -7)
          CFI (cfiCond302) ?b8 Frame(CFA, -6)
          CFI (cfiCond302) ?b9 Frame(CFA, -5)
          CFI (cfiCond302) ?b10 Frame(CFA, -4)
          CFI (cfiCond302) ?b11 Frame(CFA, -3)
          CFI (cfiCond302) CFA SP+25
          CFI Block cfiCond303 Using cfiCommon0
          CFI (cfiCond303) Function ReadIdInFlash
          CFI (cfiCond303) Conditional ??CrossCallReturnLabel_218, ??CrossCallReturnLabel_212, ??CrossCallReturnLabel_43
          CFI (cfiCond303) ?b10 Frame(CFA, -9)
          CFI (cfiCond303) ?b8 Frame(CFA, -8)
          CFI (cfiCond303) ?b9 Frame(CFA, -7)
          CFI (cfiCond303) ?b12 Frame(CFA, -6)
          CFI (cfiCond303) ?b13 Frame(CFA, -5)
          CFI (cfiCond303) ?b14 Frame(CFA, -4)
          CFI (cfiCond303) ?b15 Frame(CFA, -3)
          CFI (cfiCond303) CFA SP+19
          CFI Block cfiCond304 Using cfiCommon0
          CFI (cfiCond304) Function UpdateDatasAdressInFlash
          CFI (cfiCond304) Conditional ??CrossCallReturnLabel_218, ??CrossCallReturnLabel_213, ??CrossCallReturnLabel_42
          CFI (cfiCond304) ?b12 Frame(CFA, -10)
          CFI (cfiCond304) ?b13 Frame(CFA, -9)
          CFI (cfiCond304) ?b14 Frame(CFA, -8)
          CFI (cfiCond304) ?b15 Frame(CFA, -7)
          CFI (cfiCond304) ?b8 Frame(CFA, -6)
          CFI (cfiCond304) ?b9 Frame(CFA, -5)
          CFI (cfiCond304) ?b10 Frame(CFA, -4)
          CFI (cfiCond304) ?b11 Frame(CFA, -3)
          CFI (cfiCond304) CFA SP+25
          CFI Block cfiCond305 Using cfiCommon0
          CFI (cfiCond305) Function ReadIdInFlash
          CFI (cfiCond305) Conditional ??CrossCallReturnLabel_218, ??CrossCallReturnLabel_213, ??CrossCallReturnLabel_43
          CFI (cfiCond305) ?b10 Frame(CFA, -9)
          CFI (cfiCond305) ?b8 Frame(CFA, -8)
          CFI (cfiCond305) ?b9 Frame(CFA, -7)
          CFI (cfiCond305) ?b12 Frame(CFA, -6)
          CFI (cfiCond305) ?b13 Frame(CFA, -5)
          CFI (cfiCond305) ?b14 Frame(CFA, -4)
          CFI (cfiCond305) ?b15 Frame(CFA, -3)
          CFI (cfiCond305) CFA SP+19
          CFI Block cfiCond306 Using cfiCommon0
          CFI (cfiCond306) Function UpdateDatasAdressInFlash
          CFI (cfiCond306) Conditional ??CrossCallReturnLabel_218, ??CrossCallReturnLabel_214, ??CrossCallReturnLabel_42
          CFI (cfiCond306) ?b12 Frame(CFA, -10)
          CFI (cfiCond306) ?b13 Frame(CFA, -9)
          CFI (cfiCond306) ?b14 Frame(CFA, -8)
          CFI (cfiCond306) ?b15 Frame(CFA, -7)
          CFI (cfiCond306) ?b8 Frame(CFA, -6)
          CFI (cfiCond306) ?b9 Frame(CFA, -5)
          CFI (cfiCond306) ?b10 Frame(CFA, -4)
          CFI (cfiCond306) ?b11 Frame(CFA, -3)
          CFI (cfiCond306) CFA SP+25
          CFI Block cfiCond307 Using cfiCommon0
          CFI (cfiCond307) Function ReadIdInFlash
          CFI (cfiCond307) Conditional ??CrossCallReturnLabel_218, ??CrossCallReturnLabel_214, ??CrossCallReturnLabel_43
          CFI (cfiCond307) ?b10 Frame(CFA, -9)
          CFI (cfiCond307) ?b8 Frame(CFA, -8)
          CFI (cfiCond307) ?b9 Frame(CFA, -7)
          CFI (cfiCond307) ?b12 Frame(CFA, -6)
          CFI (cfiCond307) ?b13 Frame(CFA, -5)
          CFI (cfiCond307) ?b14 Frame(CFA, -4)
          CFI (cfiCond307) ?b15 Frame(CFA, -3)
          CFI (cfiCond307) CFA SP+19
          CFI Block cfiCond308 Using cfiCommon0
          CFI (cfiCond308) Function UpdateDatasAdressInFlash
          CFI (cfiCond308) Conditional ??CrossCallReturnLabel_218, ??CrossCallReturnLabel_215, ??CrossCallReturnLabel_42
          CFI (cfiCond308) ?b12 Frame(CFA, -10)
          CFI (cfiCond308) ?b13 Frame(CFA, -9)
          CFI (cfiCond308) ?b14 Frame(CFA, -8)
          CFI (cfiCond308) ?b15 Frame(CFA, -7)
          CFI (cfiCond308) ?b8 Frame(CFA, -6)
          CFI (cfiCond308) ?b9 Frame(CFA, -5)
          CFI (cfiCond308) ?b10 Frame(CFA, -4)
          CFI (cfiCond308) ?b11 Frame(CFA, -3)
          CFI (cfiCond308) CFA SP+25
          CFI Block cfiCond309 Using cfiCommon0
          CFI (cfiCond309) Function ReadIdInFlash
          CFI (cfiCond309) Conditional ??CrossCallReturnLabel_218, ??CrossCallReturnLabel_215, ??CrossCallReturnLabel_43
          CFI (cfiCond309) ?b10 Frame(CFA, -9)
          CFI (cfiCond309) ?b8 Frame(CFA, -8)
          CFI (cfiCond309) ?b9 Frame(CFA, -7)
          CFI (cfiCond309) ?b12 Frame(CFA, -6)
          CFI (cfiCond309) ?b13 Frame(CFA, -5)
          CFI (cfiCond309) ?b14 Frame(CFA, -4)
          CFI (cfiCond309) ?b15 Frame(CFA, -3)
          CFI (cfiCond309) CFA SP+19
          CFI Block cfiCond310 Using cfiCommon0
          CFI (cfiCond310) Function UpdateDatasAdressInFlash
          CFI (cfiCond310) Conditional ??CrossCallReturnLabel_216, ??CrossCallReturnLabel_127, ??CrossCallReturnLabel_42
          CFI (cfiCond310) ?b12 Frame(CFA, -10)
          CFI (cfiCond310) ?b13 Frame(CFA, -9)
          CFI (cfiCond310) ?b14 Frame(CFA, -8)
          CFI (cfiCond310) ?b15 Frame(CFA, -7)
          CFI (cfiCond310) ?b8 Frame(CFA, -6)
          CFI (cfiCond310) ?b9 Frame(CFA, -5)
          CFI (cfiCond310) ?b10 Frame(CFA, -4)
          CFI (cfiCond310) ?b11 Frame(CFA, -3)
          CFI (cfiCond310) CFA SP+25
          CFI Block cfiCond311 Using cfiCommon0
          CFI (cfiCond311) Function ReadIdInFlash
          CFI (cfiCond311) Conditional ??CrossCallReturnLabel_216, ??CrossCallReturnLabel_127, ??CrossCallReturnLabel_43
          CFI (cfiCond311) ?b10 Frame(CFA, -9)
          CFI (cfiCond311) ?b8 Frame(CFA, -8)
          CFI (cfiCond311) ?b9 Frame(CFA, -7)
          CFI (cfiCond311) ?b12 Frame(CFA, -6)
          CFI (cfiCond311) ?b13 Frame(CFA, -5)
          CFI (cfiCond311) ?b14 Frame(CFA, -4)
          CFI (cfiCond311) ?b15 Frame(CFA, -3)
          CFI (cfiCond311) CFA SP+19
          CFI Block cfiCond312 Using cfiCommon0
          CFI (cfiCond312) Function UpdateDatasAdressInFlash
          CFI (cfiCond312) Conditional ??CrossCallReturnLabel_216, ??CrossCallReturnLabel_128, ??CrossCallReturnLabel_42
          CFI (cfiCond312) ?b12 Frame(CFA, -10)
          CFI (cfiCond312) ?b13 Frame(CFA, -9)
          CFI (cfiCond312) ?b14 Frame(CFA, -8)
          CFI (cfiCond312) ?b15 Frame(CFA, -7)
          CFI (cfiCond312) ?b8 Frame(CFA, -6)
          CFI (cfiCond312) ?b9 Frame(CFA, -5)
          CFI (cfiCond312) ?b10 Frame(CFA, -4)
          CFI (cfiCond312) ?b11 Frame(CFA, -3)
          CFI (cfiCond312) CFA SP+25
          CFI Block cfiCond313 Using cfiCommon0
          CFI (cfiCond313) Function ReadIdInFlash
          CFI (cfiCond313) Conditional ??CrossCallReturnLabel_216, ??CrossCallReturnLabel_128, ??CrossCallReturnLabel_43
          CFI (cfiCond313) ?b10 Frame(CFA, -9)
          CFI (cfiCond313) ?b8 Frame(CFA, -8)
          CFI (cfiCond313) ?b9 Frame(CFA, -7)
          CFI (cfiCond313) ?b12 Frame(CFA, -6)
          CFI (cfiCond313) ?b13 Frame(CFA, -5)
          CFI (cfiCond313) ?b14 Frame(CFA, -4)
          CFI (cfiCond313) ?b15 Frame(CFA, -3)
          CFI (cfiCond313) CFA SP+19
          CFI Block cfiCond314 Using cfiCommon0
          CFI (cfiCond314) Function UpdateDatasAdressInFlash
          CFI (cfiCond314) Conditional ??CrossCallReturnLabel_217, ??CrossCallReturnLabel_127, ??CrossCallReturnLabel_42
          CFI (cfiCond314) ?b12 Frame(CFA, -10)
          CFI (cfiCond314) ?b13 Frame(CFA, -9)
          CFI (cfiCond314) ?b14 Frame(CFA, -8)
          CFI (cfiCond314) ?b15 Frame(CFA, -7)
          CFI (cfiCond314) ?b8 Frame(CFA, -6)
          CFI (cfiCond314) ?b9 Frame(CFA, -5)
          CFI (cfiCond314) ?b10 Frame(CFA, -4)
          CFI (cfiCond314) ?b11 Frame(CFA, -3)
          CFI (cfiCond314) CFA SP+25
          CFI Block cfiCond315 Using cfiCommon0
          CFI (cfiCond315) Function ReadIdInFlash
          CFI (cfiCond315) Conditional ??CrossCallReturnLabel_217, ??CrossCallReturnLabel_127, ??CrossCallReturnLabel_43
          CFI (cfiCond315) ?b10 Frame(CFA, -9)
          CFI (cfiCond315) ?b8 Frame(CFA, -8)
          CFI (cfiCond315) ?b9 Frame(CFA, -7)
          CFI (cfiCond315) ?b12 Frame(CFA, -6)
          CFI (cfiCond315) ?b13 Frame(CFA, -5)
          CFI (cfiCond315) ?b14 Frame(CFA, -4)
          CFI (cfiCond315) ?b15 Frame(CFA, -3)
          CFI (cfiCond315) CFA SP+19
          CFI Block cfiCond316 Using cfiCommon0
          CFI (cfiCond316) Function UpdateDatasAdressInFlash
          CFI (cfiCond316) Conditional ??CrossCallReturnLabel_217, ??CrossCallReturnLabel_128, ??CrossCallReturnLabel_42
          CFI (cfiCond316) ?b12 Frame(CFA, -10)
          CFI (cfiCond316) ?b13 Frame(CFA, -9)
          CFI (cfiCond316) ?b14 Frame(CFA, -8)
          CFI (cfiCond316) ?b15 Frame(CFA, -7)
          CFI (cfiCond316) ?b8 Frame(CFA, -6)
          CFI (cfiCond316) ?b9 Frame(CFA, -5)
          CFI (cfiCond316) ?b10 Frame(CFA, -4)
          CFI (cfiCond316) ?b11 Frame(CFA, -3)
          CFI (cfiCond316) CFA SP+25
          CFI Block cfiCond317 Using cfiCommon0
          CFI (cfiCond317) Function ReadIdInFlash
          CFI (cfiCond317) Conditional ??CrossCallReturnLabel_217, ??CrossCallReturnLabel_128, ??CrossCallReturnLabel_43
          CFI (cfiCond317) ?b10 Frame(CFA, -9)
          CFI (cfiCond317) ?b8 Frame(CFA, -8)
          CFI (cfiCond317) ?b9 Frame(CFA, -7)
          CFI (cfiCond317) ?b12 Frame(CFA, -6)
          CFI (cfiCond317) ?b13 Frame(CFA, -5)
          CFI (cfiCond317) ?b14 Frame(CFA, -4)
          CFI (cfiCond317) ?b15 Frame(CFA, -3)
          CFI (cfiCond317) CFA SP+19
          CFI Block cfiPicker318 Using cfiCommon1
          CFI (cfiPicker318) NoFunction
          CFI (cfiPicker318) Picker
        INCW      X
        LDW       S:?w6, X
        CALLF     L:?mov_w1_w6
        CLRW      X
        LDW       S:?w0, X
        CALLF     FLASH_ReadByte
        LDW       X, S:?w4
        RETF
          CFI EndBlock cfiCond296
          CFI EndBlock cfiCond297
          CFI EndBlock cfiCond298
          CFI EndBlock cfiCond299
          CFI EndBlock cfiCond300
          CFI EndBlock cfiCond301
          CFI EndBlock cfiCond302
          CFI EndBlock cfiCond303
          CFI EndBlock cfiCond304
          CFI EndBlock cfiCond305
          CFI EndBlock cfiCond306
          CFI EndBlock cfiCond307
          CFI EndBlock cfiCond308
          CFI EndBlock cfiCond309
          CFI EndBlock cfiCond310
          CFI EndBlock cfiCond311
          CFI EndBlock cfiCond312
          CFI EndBlock cfiCond313
          CFI EndBlock cfiCond314
          CFI EndBlock cfiCond315
          CFI EndBlock cfiCond316
          CFI EndBlock cfiCond317
          CFI EndBlock cfiPicker318

        SECTION `.far_func.text`:CODE:NOROOT(0)
?Subroutine66:
          CFI Block cfiCond319 Using cfiCommon0
          CFI Function UpdateDatasAdressInFlash
          CFI Conditional ??CrossCallReturnLabel_127, ??CrossCallReturnLabel_42
          CFI ?b12 Frame(CFA, -10)
          CFI ?b13 Frame(CFA, -9)
          CFI ?b14 Frame(CFA, -8)
          CFI ?b15 Frame(CFA, -7)
          CFI ?b8 Frame(CFA, -6)
          CFI ?b9 Frame(CFA, -5)
          CFI ?b10 Frame(CFA, -4)
          CFI ?b11 Frame(CFA, -3)
          CFI CFA SP+22
          CFI Block cfiCond320 Using cfiCommon0
          CFI (cfiCond320) Function ReadIdInFlash
          CFI (cfiCond320) Conditional ??CrossCallReturnLabel_127, ??CrossCallReturnLabel_43
          CFI (cfiCond320) ?b10 Frame(CFA, -9)
          CFI (cfiCond320) ?b8 Frame(CFA, -8)
          CFI (cfiCond320) ?b9 Frame(CFA, -7)
          CFI (cfiCond320) ?b12 Frame(CFA, -6)
          CFI (cfiCond320) ?b13 Frame(CFA, -5)
          CFI (cfiCond320) ?b14 Frame(CFA, -4)
          CFI (cfiCond320) ?b15 Frame(CFA, -3)
          CFI (cfiCond320) CFA SP+16
          CFI Block cfiCond321 Using cfiCommon0
          CFI (cfiCond321) Function UpdateDatasAdressInFlash
          CFI (cfiCond321) Conditional ??CrossCallReturnLabel_128, ??CrossCallReturnLabel_42
          CFI (cfiCond321) ?b12 Frame(CFA, -10)
          CFI (cfiCond321) ?b13 Frame(CFA, -9)
          CFI (cfiCond321) ?b14 Frame(CFA, -8)
          CFI (cfiCond321) ?b15 Frame(CFA, -7)
          CFI (cfiCond321) ?b8 Frame(CFA, -6)
          CFI (cfiCond321) ?b9 Frame(CFA, -5)
          CFI (cfiCond321) ?b10 Frame(CFA, -4)
          CFI (cfiCond321) ?b11 Frame(CFA, -3)
          CFI (cfiCond321) CFA SP+22
          CFI Block cfiCond322 Using cfiCommon0
          CFI (cfiCond322) Function ReadIdInFlash
          CFI (cfiCond322) Conditional ??CrossCallReturnLabel_128, ??CrossCallReturnLabel_43
          CFI (cfiCond322) ?b10 Frame(CFA, -9)
          CFI (cfiCond322) ?b8 Frame(CFA, -8)
          CFI (cfiCond322) ?b9 Frame(CFA, -7)
          CFI (cfiCond322) ?b12 Frame(CFA, -6)
          CFI (cfiCond322) ?b13 Frame(CFA, -5)
          CFI (cfiCond322) ?b14 Frame(CFA, -4)
          CFI (cfiCond322) ?b15 Frame(CFA, -3)
          CFI (cfiCond322) CFA SP+16
          CFI Block cfiPicker323 Using cfiCommon1
          CFI (cfiPicker323) NoFunction
          CFI (cfiPicker323) Picker
        CALLF     ??Subroutine98_0
??CrossCallReturnLabel_219:
        ADDW      X, #0x2
        CALLF     ?Subroutine81
??CrossCallReturnLabel_216:
        ADDW      X, #0x3
        CALLF     ?Subroutine81
??CrossCallReturnLabel_217:
        ADDW      X, #0x4
        LD        (X), A
        LDW       X, S:?w6
        INCW      X
        LDW       S:?w6, X
        RETF
          CFI EndBlock cfiCond319
          CFI EndBlock cfiCond320
          CFI EndBlock cfiCond321
          CFI EndBlock cfiCond322
          CFI EndBlock cfiPicker323

        SECTION `.far_func.text`:CODE:NOROOT(0)
?Subroutine25:
          CFI Block cfiCond324 Using cfiCommon0
          CFI Function UpdateDatasAdressInFlash
          CFI Conditional ??CrossCallReturnLabel_220
          CFI ?b12 Frame(CFA, -10)
          CFI ?b13 Frame(CFA, -9)
          CFI ?b14 Frame(CFA, -8)
          CFI ?b15 Frame(CFA, -7)
          CFI ?b8 Frame(CFA, -6)
          CFI ?b9 Frame(CFA, -5)
          CFI ?b10 Frame(CFA, -4)
          CFI ?b11 Frame(CFA, -3)
          CFI CFA SP+19
          CFI Block cfiCond325 Using cfiCommon0
          CFI (cfiCond325) Function WriteIdInFlash
          CFI (cfiCond325) Conditional ??CrossCallReturnLabel_221
          CFI (cfiCond325) ?b8 Frame(CFA, -6)
          CFI (cfiCond325) ?b9 Frame(CFA, -5)
          CFI (cfiCond325) ?b10 Frame(CFA, -4)
          CFI (cfiCond325) ?b11 Frame(CFA, -3)
          CFI (cfiCond325) CFA SP+10
          CFI Block cfiPicker326 Using cfiCommon1
          CFI (cfiPicker326) NoFunction
          CFI (cfiPicker326) Picker
        LD        L:Public_learned_ID_num, A
          CFI EndBlock cfiCond324
          CFI EndBlock cfiCond325
          CFI EndBlock cfiPicker326
        REQUIRE ??Subroutine99_0
        ;               // Fall through to label ??Subroutine99_0

        SECTION `.far_func.text`:CODE:NOROOT(0)
??Subroutine99_0:
          CFI Block cfiCond327 Using cfiCommon0
          CFI Function ClearFlash
          CFI Conditional ??CrossCallReturnLabel_222
          CFI ?b10 Frame(CFA, -5)
          CFI ?b8 Frame(CFA, -4)
          CFI ?b9 Frame(CFA, -3)
          CFI CFA SP+9
          CFI Block cfiCond328 Using cfiCommon0
          CFI (cfiCond328) Function UpdateDatasAdressInFlash
          CFI (cfiCond328) Conditional ??CrossCallReturnLabel_220
          CFI (cfiCond328) ?b12 Frame(CFA, -10)
          CFI (cfiCond328) ?b13 Frame(CFA, -9)
          CFI (cfiCond328) ?b14 Frame(CFA, -8)
          CFI (cfiCond328) ?b15 Frame(CFA, -7)
          CFI (cfiCond328) ?b8 Frame(CFA, -6)
          CFI (cfiCond328) ?b9 Frame(CFA, -5)
          CFI (cfiCond328) ?b10 Frame(CFA, -4)
          CFI (cfiCond328) ?b11 Frame(CFA, -3)
          CFI (cfiCond328) CFA SP+19
          CFI Block cfiCond329 Using cfiCommon0
          CFI (cfiCond329) Function WriteIdInFlash
          CFI (cfiCond329) Conditional ??CrossCallReturnLabel_221
          CFI (cfiCond329) ?b8 Frame(CFA, -6)
          CFI (cfiCond329) ?b9 Frame(CFA, -5)
          CFI (cfiCond329) ?b10 Frame(CFA, -4)
          CFI (cfiCond329) ?b11 Frame(CFA, -3)
          CFI (cfiCond329) CFA SP+10
          CFI Block cfiPicker330 Using cfiCommon1
          CFI (cfiPicker330) NoFunction
          CFI (cfiPicker330) Picker
        LDW       X, #0x1003
          CFI EndBlock cfiCond327
          CFI EndBlock cfiCond328
          CFI EndBlock cfiCond329
          CFI EndBlock cfiPicker330
        REQUIRE ??Subroutine100_0
        ;               // Fall through to label ??Subroutine100_0

        SECTION `.far_func.text`:CODE:NOROOT(0)
??Subroutine100_0:
          CFI Block cfiCond331 Using cfiCommon0
          CFI Function UpdateDatasAdressInFlash
          CFI Conditional ??CrossCallReturnLabel_223
          CFI ?b12 Frame(CFA, -10)
          CFI ?b13 Frame(CFA, -9)
          CFI ?b14 Frame(CFA, -8)
          CFI ?b15 Frame(CFA, -7)
          CFI ?b8 Frame(CFA, -6)
          CFI ?b9 Frame(CFA, -5)
          CFI ?b10 Frame(CFA, -4)
          CFI ?b11 Frame(CFA, -3)
          CFI CFA SP+19
          CFI Block cfiCond332 Using cfiCommon0
          CFI (cfiCond332) Function WriteIdInFlash
          CFI (cfiCond332) Conditional ??CrossCallReturnLabel_224
          CFI (cfiCond332) ?b8 Frame(CFA, -6)
          CFI (cfiCond332) ?b9 Frame(CFA, -5)
          CFI (cfiCond332) ?b10 Frame(CFA, -4)
          CFI (cfiCond332) ?b11 Frame(CFA, -3)
          CFI (cfiCond332) CFA SP+10
          CFI Block cfiCond333 Using cfiCommon0
          CFI (cfiCond333) Function ReadIdInFlash
          CFI (cfiCond333) Conditional ??CrossCallReturnLabel_225
          CFI (cfiCond333) ?b10 Frame(CFA, -9)
          CFI (cfiCond333) ?b8 Frame(CFA, -8)
          CFI (cfiCond333) ?b9 Frame(CFA, -7)
          CFI (cfiCond333) ?b12 Frame(CFA, -6)
          CFI (cfiCond333) ?b13 Frame(CFA, -5)
          CFI (cfiCond333) ?b14 Frame(CFA, -4)
          CFI (cfiCond333) ?b15 Frame(CFA, -3)
          CFI (cfiCond333) CFA SP+13
          CFI Block cfiCond334 Using cfiCommon0
          CFI (cfiCond334) Function FirstPower
          CFI (cfiCond334) Conditional ??CrossCallReturnLabel_226
          CFI (cfiCond334) CFA SP+6
          CFI Block cfiCond335 Using cfiCommon0
          CFI (cfiCond335) Function ClearFlash
          CFI (cfiCond335) Conditional ??CrossCallReturnLabel_222
          CFI (cfiCond335) ?b10 Frame(CFA, -5)
          CFI (cfiCond335) ?b8 Frame(CFA, -4)
          CFI (cfiCond335) ?b9 Frame(CFA, -3)
          CFI (cfiCond335) CFA SP+9
          CFI Block cfiCond336 Using cfiCommon0
          CFI (cfiCond336) Function UpdateDatasAdressInFlash
          CFI (cfiCond336) Conditional ??CrossCallReturnLabel_220
          CFI (cfiCond336) ?b12 Frame(CFA, -10)
          CFI (cfiCond336) ?b13 Frame(CFA, -9)
          CFI (cfiCond336) ?b14 Frame(CFA, -8)
          CFI (cfiCond336) ?b15 Frame(CFA, -7)
          CFI (cfiCond336) ?b8 Frame(CFA, -6)
          CFI (cfiCond336) ?b9 Frame(CFA, -5)
          CFI (cfiCond336) ?b10 Frame(CFA, -4)
          CFI (cfiCond336) ?b11 Frame(CFA, -3)
          CFI (cfiCond336) CFA SP+19
          CFI Block cfiCond337 Using cfiCommon0
          CFI (cfiCond337) Function WriteIdInFlash
          CFI (cfiCond337) Conditional ??CrossCallReturnLabel_221
          CFI (cfiCond337) ?b8 Frame(CFA, -6)
          CFI (cfiCond337) ?b9 Frame(CFA, -5)
          CFI (cfiCond337) ?b10 Frame(CFA, -4)
          CFI (cfiCond337) ?b11 Frame(CFA, -3)
          CFI (cfiCond337) CFA SP+10
          CFI Block cfiPicker338 Using cfiCommon1
          CFI (cfiPicker338) NoFunction
          CFI (cfiPicker338) Picker
        CALLF     ?Subroutine74
??CrossCallReturnLabel_229:
        RETF
          CFI EndBlock cfiCond331
          CFI EndBlock cfiCond332
          CFI EndBlock cfiCond333
          CFI EndBlock cfiCond334
          CFI EndBlock cfiCond335
          CFI EndBlock cfiCond336
          CFI EndBlock cfiCond337
          CFI EndBlock cfiPicker338

        SECTION `.far_func.text`:CODE:NOROOT(0)
?Subroutine74:
          CFI Block cfiCond339 Using cfiCommon0
          CFI Function ClearFlash
          CFI Conditional ??CrossCallReturnLabel_230, ??CrossCallReturnLabel_38
          CFI ?b10 Frame(CFA, -5)
          CFI ?b8 Frame(CFA, -4)
          CFI ?b9 Frame(CFA, -3)
          CFI CFA SP+12
          CFI Block cfiCond340 Using cfiCommon0
          CFI (cfiCond340) Function ClearFlash
          CFI (cfiCond340) Conditional ??CrossCallReturnLabel_230, ??CrossCallReturnLabel_39
          CFI (cfiCond340) ?b10 Frame(CFA, -5)
          CFI (cfiCond340) ?b8 Frame(CFA, -4)
          CFI (cfiCond340) ?b9 Frame(CFA, -3)
          CFI (cfiCond340) CFA SP+12
          CFI Block cfiCond341 Using cfiCommon0
          CFI (cfiCond341) Function UpdateDatasAdressInFlash
          CFI (cfiCond341) Conditional ??CrossCallReturnLabel_229, ??CrossCallReturnLabel_220
          CFI (cfiCond341) ?b12 Frame(CFA, -10)
          CFI (cfiCond341) ?b13 Frame(CFA, -9)
          CFI (cfiCond341) ?b14 Frame(CFA, -8)
          CFI (cfiCond341) ?b15 Frame(CFA, -7)
          CFI (cfiCond341) ?b8 Frame(CFA, -6)
          CFI (cfiCond341) ?b9 Frame(CFA, -5)
          CFI (cfiCond341) ?b10 Frame(CFA, -4)
          CFI (cfiCond341) ?b11 Frame(CFA, -3)
          CFI (cfiCond341) CFA SP+22
          CFI Block cfiCond342 Using cfiCommon0
          CFI (cfiCond342) Function WriteIdInFlash
          CFI (cfiCond342) Conditional ??CrossCallReturnLabel_229, ??CrossCallReturnLabel_221
          CFI (cfiCond342) ?b8 Frame(CFA, -6)
          CFI (cfiCond342) ?b9 Frame(CFA, -5)
          CFI (cfiCond342) ?b10 Frame(CFA, -4)
          CFI (cfiCond342) ?b11 Frame(CFA, -3)
          CFI (cfiCond342) CFA SP+13
          CFI Block cfiCond343 Using cfiCommon0
          CFI (cfiCond343) Function ClearFlash
          CFI (cfiCond343) Conditional ??CrossCallReturnLabel_229, ??CrossCallReturnLabel_222
          CFI (cfiCond343) ?b10 Frame(CFA, -5)
          CFI (cfiCond343) ?b8 Frame(CFA, -4)
          CFI (cfiCond343) ?b9 Frame(CFA, -3)
          CFI (cfiCond343) CFA SP+12
          CFI Block cfiCond344 Using cfiCommon0
          CFI (cfiCond344) Function UpdateDatasAdressInFlash
          CFI (cfiCond344) Conditional ??CrossCallReturnLabel_229, ??CrossCallReturnLabel_223
          CFI (cfiCond344) ?b12 Frame(CFA, -10)
          CFI (cfiCond344) ?b13 Frame(CFA, -9)
          CFI (cfiCond344) ?b14 Frame(CFA, -8)
          CFI (cfiCond344) ?b15 Frame(CFA, -7)
          CFI (cfiCond344) ?b8 Frame(CFA, -6)
          CFI (cfiCond344) ?b9 Frame(CFA, -5)
          CFI (cfiCond344) ?b10 Frame(CFA, -4)
          CFI (cfiCond344) ?b11 Frame(CFA, -3)
          CFI (cfiCond344) CFA SP+22
          CFI Block cfiCond345 Using cfiCommon0
          CFI (cfiCond345) Function WriteIdInFlash
          CFI (cfiCond345) Conditional ??CrossCallReturnLabel_229, ??CrossCallReturnLabel_224
          CFI (cfiCond345) ?b8 Frame(CFA, -6)
          CFI (cfiCond345) ?b9 Frame(CFA, -5)
          CFI (cfiCond345) ?b10 Frame(CFA, -4)
          CFI (cfiCond345) ?b11 Frame(CFA, -3)
          CFI (cfiCond345) CFA SP+13
          CFI Block cfiCond346 Using cfiCommon0
          CFI (cfiCond346) Function ReadIdInFlash
          CFI (cfiCond346) Conditional ??CrossCallReturnLabel_229, ??CrossCallReturnLabel_225
          CFI (cfiCond346) ?b10 Frame(CFA, -9)
          CFI (cfiCond346) ?b8 Frame(CFA, -8)
          CFI (cfiCond346) ?b9 Frame(CFA, -7)
          CFI (cfiCond346) ?b12 Frame(CFA, -6)
          CFI (cfiCond346) ?b13 Frame(CFA, -5)
          CFI (cfiCond346) ?b14 Frame(CFA, -4)
          CFI (cfiCond346) ?b15 Frame(CFA, -3)
          CFI (cfiCond346) CFA SP+16
          CFI Block cfiCond347 Using cfiCommon0
          CFI (cfiCond347) Function FirstPower
          CFI (cfiCond347) Conditional ??CrossCallReturnLabel_229, ??CrossCallReturnLabel_226
          CFI (cfiCond347) CFA SP+9
          CFI Block cfiCond348 Using cfiCommon0
          CFI (cfiCond348) Function ClearFlash
          CFI (cfiCond348) Conditional ??CrossCallReturnLabel_228, ??CrossCallReturnLabel_36
          CFI (cfiCond348) ?b10 Frame(CFA, -5)
          CFI (cfiCond348) ?b8 Frame(CFA, -4)
          CFI (cfiCond348) ?b9 Frame(CFA, -3)
          CFI (cfiCond348) CFA SP+12
          CFI Block cfiCond349 Using cfiCommon0
          CFI (cfiCond349) Function ReadIdInFlash
          CFI (cfiCond349) Conditional ??CrossCallReturnLabel_228, ??CrossCallReturnLabel_37
          CFI (cfiCond349) ?b10 Frame(CFA, -9)
          CFI (cfiCond349) ?b8 Frame(CFA, -8)
          CFI (cfiCond349) ?b9 Frame(CFA, -7)
          CFI (cfiCond349) ?b12 Frame(CFA, -6)
          CFI (cfiCond349) ?b13 Frame(CFA, -5)
          CFI (cfiCond349) ?b14 Frame(CFA, -4)
          CFI (cfiCond349) ?b15 Frame(CFA, -3)
          CFI (cfiCond349) CFA SP+16
          CFI Block cfiPicker350 Using cfiCommon1
          CFI (cfiPicker350) NoFunction
          CFI (cfiPicker350) Picker
        LDW       S:?w1, X
          CFI EndBlock cfiCond339
          CFI EndBlock cfiCond340
          CFI EndBlock cfiCond341
          CFI EndBlock cfiCond342
          CFI EndBlock cfiCond343
          CFI EndBlock cfiCond344
          CFI EndBlock cfiCond345
          CFI EndBlock cfiCond346
          CFI EndBlock cfiCond347
          CFI EndBlock cfiCond348
          CFI EndBlock cfiCond349
          CFI EndBlock cfiPicker350
        REQUIRE ??Subroutine101_0
        ;               // Fall through to label ??Subroutine101_0

        SECTION `.far_func.text`:CODE:NOROOT(0)
??Subroutine101_0:
          CFI Block cfiCond351 Using cfiCommon0
          CFI Function ClearFlash
          CFI Conditional ??CrossCallReturnLabel_227
          CFI ?b10 Frame(CFA, -5)
          CFI ?b8 Frame(CFA, -4)
          CFI ?b9 Frame(CFA, -3)
          CFI CFA SP+9
          CFI Block cfiCond352 Using cfiCommon0
          CFI (cfiCond352) Function ClearFlash
          CFI (cfiCond352) Conditional ??CrossCallReturnLabel_230, ??CrossCallReturnLabel_38
          CFI (cfiCond352) ?b10 Frame(CFA, -5)
          CFI (cfiCond352) ?b8 Frame(CFA, -4)
          CFI (cfiCond352) ?b9 Frame(CFA, -3)
          CFI (cfiCond352) CFA SP+12
          CFI Block cfiCond353 Using cfiCommon0
          CFI (cfiCond353) Function ClearFlash
          CFI (cfiCond353) Conditional ??CrossCallReturnLabel_230, ??CrossCallReturnLabel_39
          CFI (cfiCond353) ?b10 Frame(CFA, -5)
          CFI (cfiCond353) ?b8 Frame(CFA, -4)
          CFI (cfiCond353) ?b9 Frame(CFA, -3)
          CFI (cfiCond353) CFA SP+12
          CFI Block cfiCond354 Using cfiCommon0
          CFI (cfiCond354) Function UpdateDatasAdressInFlash
          CFI (cfiCond354) Conditional ??CrossCallReturnLabel_229, ??CrossCallReturnLabel_220
          CFI (cfiCond354) ?b12 Frame(CFA, -10)
          CFI (cfiCond354) ?b13 Frame(CFA, -9)
          CFI (cfiCond354) ?b14 Frame(CFA, -8)
          CFI (cfiCond354) ?b15 Frame(CFA, -7)
          CFI (cfiCond354) ?b8 Frame(CFA, -6)
          CFI (cfiCond354) ?b9 Frame(CFA, -5)
          CFI (cfiCond354) ?b10 Frame(CFA, -4)
          CFI (cfiCond354) ?b11 Frame(CFA, -3)
          CFI (cfiCond354) CFA SP+22
          CFI Block cfiCond355 Using cfiCommon0
          CFI (cfiCond355) Function WriteIdInFlash
          CFI (cfiCond355) Conditional ??CrossCallReturnLabel_229, ??CrossCallReturnLabel_221
          CFI (cfiCond355) ?b8 Frame(CFA, -6)
          CFI (cfiCond355) ?b9 Frame(CFA, -5)
          CFI (cfiCond355) ?b10 Frame(CFA, -4)
          CFI (cfiCond355) ?b11 Frame(CFA, -3)
          CFI (cfiCond355) CFA SP+13
          CFI Block cfiCond356 Using cfiCommon0
          CFI (cfiCond356) Function ClearFlash
          CFI (cfiCond356) Conditional ??CrossCallReturnLabel_229, ??CrossCallReturnLabel_222
          CFI (cfiCond356) ?b10 Frame(CFA, -5)
          CFI (cfiCond356) ?b8 Frame(CFA, -4)
          CFI (cfiCond356) ?b9 Frame(CFA, -3)
          CFI (cfiCond356) CFA SP+12
          CFI Block cfiCond357 Using cfiCommon0
          CFI (cfiCond357) Function UpdateDatasAdressInFlash
          CFI (cfiCond357) Conditional ??CrossCallReturnLabel_229, ??CrossCallReturnLabel_223
          CFI (cfiCond357) ?b12 Frame(CFA, -10)
          CFI (cfiCond357) ?b13 Frame(CFA, -9)
          CFI (cfiCond357) ?b14 Frame(CFA, -8)
          CFI (cfiCond357) ?b15 Frame(CFA, -7)
          CFI (cfiCond357) ?b8 Frame(CFA, -6)
          CFI (cfiCond357) ?b9 Frame(CFA, -5)
          CFI (cfiCond357) ?b10 Frame(CFA, -4)
          CFI (cfiCond357) ?b11 Frame(CFA, -3)
          CFI (cfiCond357) CFA SP+22
          CFI Block cfiCond358 Using cfiCommon0
          CFI (cfiCond358) Function WriteIdInFlash
          CFI (cfiCond358) Conditional ??CrossCallReturnLabel_229, ??CrossCallReturnLabel_224
          CFI (cfiCond358) ?b8 Frame(CFA, -6)
          CFI (cfiCond358) ?b9 Frame(CFA, -5)
          CFI (cfiCond358) ?b10 Frame(CFA, -4)
          CFI (cfiCond358) ?b11 Frame(CFA, -3)
          CFI (cfiCond358) CFA SP+13
          CFI Block cfiCond359 Using cfiCommon0
          CFI (cfiCond359) Function ReadIdInFlash
          CFI (cfiCond359) Conditional ??CrossCallReturnLabel_229, ??CrossCallReturnLabel_225
          CFI (cfiCond359) ?b10 Frame(CFA, -9)
          CFI (cfiCond359) ?b8 Frame(CFA, -8)
          CFI (cfiCond359) ?b9 Frame(CFA, -7)
          CFI (cfiCond359) ?b12 Frame(CFA, -6)
          CFI (cfiCond359) ?b13 Frame(CFA, -5)
          CFI (cfiCond359) ?b14 Frame(CFA, -4)
          CFI (cfiCond359) ?b15 Frame(CFA, -3)
          CFI (cfiCond359) CFA SP+16
          CFI Block cfiCond360 Using cfiCommon0
          CFI (cfiCond360) Function FirstPower
          CFI (cfiCond360) Conditional ??CrossCallReturnLabel_229, ??CrossCallReturnLabel_226
          CFI (cfiCond360) CFA SP+9
          CFI Block cfiCond361 Using cfiCommon0
          CFI (cfiCond361) Function ClearFlash
          CFI (cfiCond361) Conditional ??CrossCallReturnLabel_228, ??CrossCallReturnLabel_36
          CFI (cfiCond361) ?b10 Frame(CFA, -5)
          CFI (cfiCond361) ?b8 Frame(CFA, -4)
          CFI (cfiCond361) ?b9 Frame(CFA, -3)
          CFI (cfiCond361) CFA SP+12
          CFI Block cfiCond362 Using cfiCommon0
          CFI (cfiCond362) Function ReadIdInFlash
          CFI (cfiCond362) Conditional ??CrossCallReturnLabel_228, ??CrossCallReturnLabel_37
          CFI (cfiCond362) ?b10 Frame(CFA, -9)
          CFI (cfiCond362) ?b8 Frame(CFA, -8)
          CFI (cfiCond362) ?b9 Frame(CFA, -7)
          CFI (cfiCond362) ?b12 Frame(CFA, -6)
          CFI (cfiCond362) ?b13 Frame(CFA, -5)
          CFI (cfiCond362) ?b14 Frame(CFA, -4)
          CFI (cfiCond362) ?b15 Frame(CFA, -3)
          CFI (cfiCond362) CFA SP+16
          CFI Block cfiPicker363 Using cfiCommon1
          CFI (cfiPicker363) NoFunction
          CFI (cfiPicker363) Picker
        CLRW      X
        LDW       S:?w0, X
        JPF       FLASH_ProgramByte
          CFI EndBlock cfiCond351
          CFI EndBlock cfiCond352
          CFI EndBlock cfiCond353
          CFI EndBlock cfiCond354
          CFI EndBlock cfiCond355
          CFI EndBlock cfiCond356
          CFI EndBlock cfiCond357
          CFI EndBlock cfiCond358
          CFI EndBlock cfiCond359
          CFI EndBlock cfiCond360
          CFI EndBlock cfiCond361
          CFI EndBlock cfiCond362
          CFI EndBlock cfiPicker363

        SECTION `.far_func.text`:CODE:NOROOT(0)
?Subroutine23:
          CFI Block cfiCond364 Using cfiCommon0
          CFI Function ClearFlash
          CFI Conditional ??CrossCallReturnLabel_36
          CFI ?b10 Frame(CFA, -5)
          CFI ?b8 Frame(CFA, -4)
          CFI ?b9 Frame(CFA, -3)
          CFI CFA SP+9
          CFI Block cfiCond365 Using cfiCommon0
          CFI (cfiCond365) Function ReadIdInFlash
          CFI (cfiCond365) Conditional ??CrossCallReturnLabel_37
          CFI (cfiCond365) ?b10 Frame(CFA, -9)
          CFI (cfiCond365) ?b8 Frame(CFA, -8)
          CFI (cfiCond365) ?b9 Frame(CFA, -7)
          CFI (cfiCond365) ?b12 Frame(CFA, -6)
          CFI (cfiCond365) ?b13 Frame(CFA, -5)
          CFI (cfiCond365) ?b14 Frame(CFA, -4)
          CFI (cfiCond365) ?b15 Frame(CFA, -3)
          CFI (cfiCond365) CFA SP+13
          CFI Block cfiPicker366 Using cfiCommon1
          CFI (cfiPicker366) NoFunction
          CFI (cfiPicker366) Picker
        CALLF     ?Subroutine74
??CrossCallReturnLabel_228:
        LD        A, #0x10
        RETF
          CFI EndBlock cfiCond364
          CFI EndBlock cfiCond365
          CFI EndBlock cfiPicker366

        SECTION `.far_func.text`:CODE:NOROOT(0)
?Subroutine15:
          CFI Block cfiCond367 Using cfiCommon0
          CFI Function main
          CFI Conditional ??CrossCallReturnLabel_231
          CFI CFA SP+6
          CFI Block cfiCond368 Using cfiCommon0
          CFI (cfiCond368) Function halRfReceivePacket
          CFI (cfiCond368) Conditional ??CrossCallReturnLabel_232
          CFI (cfiCond368) ?b10 Frame(CFA, -7)
          CFI (cfiCond368) ?b12 Frame(CFA, -6)
          CFI (cfiCond368) ?b13 Frame(CFA, -5)
          CFI (cfiCond368) ?b8 Frame(CFA, -4)
          CFI (cfiCond368) ?b9 Frame(CFA, -3)
          CFI (cfiCond368) CFA SP+13
          CFI Block cfiCond369 Using cfiCommon0
          CFI (cfiCond369) Function halRfReceivePacket
          CFI (cfiCond369) Conditional ??CrossCallReturnLabel_233
          CFI (cfiCond369) ?b10 Frame(CFA, -7)
          CFI (cfiCond369) ?b12 Frame(CFA, -6)
          CFI (cfiCond369) ?b13 Frame(CFA, -5)
          CFI (cfiCond369) ?b8 Frame(CFA, -4)
          CFI (cfiCond369) ?b9 Frame(CFA, -3)
          CFI (cfiCond369) CFA SP+13
          CFI Block cfiPicker370 Using cfiCommon1
          CFI (cfiPicker370) NoFunction
          CFI (cfiPicker370) Picker
        LD        A, #0x36
        CALLF     halSpiStrobe
        LD        A, #0x34
        CALLF     halSpiStrobe
          CFI EndBlock cfiCond367
          CFI EndBlock cfiCond368
          CFI EndBlock cfiCond369
          CFI EndBlock cfiPicker370
        REQUIRE ??Subroutine102_0
        ;               // Fall through to label ??Subroutine102_0

        SECTION `.far_func.text`:CODE:NOROOT(0)
??Subroutine102_0:
          CFI Block cfiCond371 Using cfiCommon0
          CFI Function ClearFlash
          CFI Conditional ??CrossCallReturnLabel_234
          CFI ?b10 Frame(CFA, -5)
          CFI ?b8 Frame(CFA, -4)
          CFI ?b9 Frame(CFA, -3)
          CFI CFA SP+9
          CFI Block cfiCond372 Using cfiCommon0
          CFI (cfiCond372) Function UpdateDatasAdressInFlash
          CFI (cfiCond372) Conditional ??CrossCallReturnLabel_235
          CFI (cfiCond372) ?b12 Frame(CFA, -10)
          CFI (cfiCond372) ?b13 Frame(CFA, -9)
          CFI (cfiCond372) ?b14 Frame(CFA, -8)
          CFI (cfiCond372) ?b15 Frame(CFA, -7)
          CFI (cfiCond372) ?b8 Frame(CFA, -6)
          CFI (cfiCond372) ?b9 Frame(CFA, -5)
          CFI (cfiCond372) ?b10 Frame(CFA, -4)
          CFI (cfiCond372) ?b11 Frame(CFA, -3)
          CFI (cfiCond372) CFA SP+19
          CFI Block cfiCond373 Using cfiCommon0
          CFI (cfiCond373) Function WriteIdInFlash
          CFI (cfiCond373) Conditional ??CrossCallReturnLabel_236
          CFI (cfiCond373) ?b8 Frame(CFA, -6)
          CFI (cfiCond373) ?b9 Frame(CFA, -5)
          CFI (cfiCond373) ?b10 Frame(CFA, -4)
          CFI (cfiCond373) ?b11 Frame(CFA, -3)
          CFI (cfiCond373) CFA SP+10
          CFI Block cfiCond374 Using cfiCommon0
          CFI (cfiCond374) Function ReadIdInFlash
          CFI (cfiCond374) Conditional ??CrossCallReturnLabel_237
          CFI (cfiCond374) ?b10 Frame(CFA, -9)
          CFI (cfiCond374) ?b8 Frame(CFA, -8)
          CFI (cfiCond374) ?b9 Frame(CFA, -7)
          CFI (cfiCond374) ?b12 Frame(CFA, -6)
          CFI (cfiCond374) ?b13 Frame(CFA, -5)
          CFI (cfiCond374) ?b14 Frame(CFA, -4)
          CFI (cfiCond374) ?b15 Frame(CFA, -3)
          CFI (cfiCond374) CFA SP+13
          CFI Block cfiCond375 Using cfiCommon0
          CFI (cfiCond375) Function FirstPower
          CFI (cfiCond375) Conditional ??CrossCallReturnLabel_238
          CFI (cfiCond375) CFA SP+6
          CFI Block cfiCond376 Using cfiCommon0
          CFI (cfiCond376) Function main
          CFI (cfiCond376) Conditional ??CrossCallReturnLabel_231
          CFI (cfiCond376) CFA SP+6
          CFI Block cfiCond377 Using cfiCommon0
          CFI (cfiCond377) Function halRfReceivePacket
          CFI (cfiCond377) Conditional ??CrossCallReturnLabel_232
          CFI (cfiCond377) ?b10 Frame(CFA, -7)
          CFI (cfiCond377) ?b12 Frame(CFA, -6)
          CFI (cfiCond377) ?b13 Frame(CFA, -5)
          CFI (cfiCond377) ?b8 Frame(CFA, -4)
          CFI (cfiCond377) ?b9 Frame(CFA, -3)
          CFI (cfiCond377) CFA SP+13
          CFI Block cfiCond378 Using cfiCommon0
          CFI (cfiCond378) Function halRfReceivePacket
          CFI (cfiCond378) Conditional ??CrossCallReturnLabel_233
          CFI (cfiCond378) ?b10 Frame(CFA, -7)
          CFI (cfiCond378) ?b12 Frame(CFA, -6)
          CFI (cfiCond378) ?b13 Frame(CFA, -5)
          CFI (cfiCond378) ?b8 Frame(CFA, -4)
          CFI (cfiCond378) ?b9 Frame(CFA, -3)
          CFI (cfiCond378) CFA SP+13
          CFI Block cfiPicker379 Using cfiCommon1
          CFI (cfiPicker379) NoFunction
          CFI (cfiPicker379) Picker
        CALLF     ?Subroutine72
??CrossCallReturnLabel_239:
        RETF
          CFI EndBlock cfiCond371
          CFI EndBlock cfiCond372
          CFI EndBlock cfiCond373
          CFI EndBlock cfiCond374
          CFI EndBlock cfiCond375
          CFI EndBlock cfiCond376
          CFI EndBlock cfiCond377
          CFI EndBlock cfiCond378
          CFI EndBlock cfiPicker379

        SECTION `.far_func.text`:CODE:NOROOT(0)
?Subroutine72:
          CFI Block cfiCond380 Using cfiCommon0
          CFI Function ControlByAirLearn_NewWriteInFlash
          CFI Conditional ??CrossCallReturnLabel_240, ??CrossCallReturnLabel_14
          CFI ?b12 Frame(CFA, -10)
          CFI ?b13 Frame(CFA, -9)
          CFI ?b14 Frame(CFA, -8)
          CFI ?b15 Frame(CFA, -7)
          CFI ?b8 Frame(CFA, -6)
          CFI ?b9 Frame(CFA, -5)
          CFI ?b10 Frame(CFA, -4)
          CFI ?b11 Frame(CFA, -3)
          CFI CFA SP+20
          CFI Block cfiCond381 Using cfiCommon0
          CFI (cfiCond381) Function WriteKeyOperationInFlash
          CFI (cfiCond381) Conditional ??CrossCallReturnLabel_240, ??CrossCallReturnLabel_15
          CFI (cfiCond381) ?b12 Frame(CFA, -8)
          CFI (cfiCond381) ?b13 Frame(CFA, -7)
          CFI (cfiCond381) ?b8 Frame(CFA, -6)
          CFI (cfiCond381) ?b9 Frame(CFA, -5)
          CFI (cfiCond381) ?b10 Frame(CFA, -4)
          CFI (cfiCond381) ?b11 Frame(CFA, -3)
          CFI (cfiCond381) CFA SP+15
          CFI Block cfiCond382 Using cfiCommon0
          CFI (cfiCond382) Function main
          CFI (cfiCond382) Conditional ??CrossCallReturnLabel_239, ??CrossCallReturnLabel_231
          CFI (cfiCond382) CFA SP+9
          CFI Block cfiCond383 Using cfiCommon0
          CFI (cfiCond383) Function halRfReceivePacket
          CFI (cfiCond383) Conditional ??CrossCallReturnLabel_239, ??CrossCallReturnLabel_232
          CFI (cfiCond383) ?b10 Frame(CFA, -7)
          CFI (cfiCond383) ?b12 Frame(CFA, -6)
          CFI (cfiCond383) ?b13 Frame(CFA, -5)
          CFI (cfiCond383) ?b8 Frame(CFA, -4)
          CFI (cfiCond383) ?b9 Frame(CFA, -3)
          CFI (cfiCond383) CFA SP+16
          CFI Block cfiCond384 Using cfiCommon0
          CFI (cfiCond384) Function halRfReceivePacket
          CFI (cfiCond384) Conditional ??CrossCallReturnLabel_239, ??CrossCallReturnLabel_233
          CFI (cfiCond384) ?b10 Frame(CFA, -7)
          CFI (cfiCond384) ?b12 Frame(CFA, -6)
          CFI (cfiCond384) ?b13 Frame(CFA, -5)
          CFI (cfiCond384) ?b8 Frame(CFA, -4)
          CFI (cfiCond384) ?b9 Frame(CFA, -3)
          CFI (cfiCond384) CFA SP+16
          CFI Block cfiCond385 Using cfiCommon0
