///////////////////////////////////////////////////////////////////////////////
//
// IAR C/C++ Compiler V2.10.2.149 for STM8                09/Jun/2015  11:00:16
// Copyright 2010-2014 IAR Systems AB.
//
//    Source file  =  
//        C:\Users\THINK\Documents\GitHub\FTT-TwoLine-Operater\STM8L051\Project\main_code\stm8l15x_it.c
//    Command line =  
//        C:\Users\THINK\Documents\GitHub\FTT-TwoLine-Operater\STM8L051\Project\main_code\stm8l15x_it.c
//        -e -Ohz --debug --code_model medium --data_model medium -o
//        C:\Users\THINK\Documents\GitHub\FTT-TwoLine-Operater\STM8L051\Project\main_code\EWSTM8\relase\Obj\
//        --dlib_config "C:\Program Files (x86)\IAR Systems\Embedded Workbench
//        7.0\stm8\LIB\dlstm8mmn.h" -D USE_STM8L1526_EVAL -D STM8L05X_LD_VL -lC
//        C:\Users\THINK\Documents\GitHub\FTT-TwoLine-Operater\STM8L051\Project\main_code\EWSTM8\relase\List\
//        -lA
//        C:\Users\THINK\Documents\GitHub\FTT-TwoLine-Operater\STM8L051\Project\main_code\EWSTM8\relase\List\
//        -I
//        C:\Users\THINK\Documents\GitHub\FTT-TwoLine-Operater\STM8L051\Project\main_code\EWSTM8\..\
//        -I
//        C:\Users\THINK\Documents\GitHub\FTT-TwoLine-Operater\STM8L051\Project\main_code\EWSTM8\..\..\..\Libraries\STM8L15x_StdPeriph_Driver\inc\
//        -I
//        C:\Users\THINK\Documents\GitHub\FTT-TwoLine-Operater\STM8L051\Project\main_code\EWSTM8\..\..\..\Utilities\STM8_EVAL\
//        -I
//        C:\Users\THINK\Documents\GitHub\FTT-TwoLine-Operater\STM8L051\Project\main_code\EWSTM8\..\..\..\Utilities\STM8_EVAL\STM8L1526_EVAL\
//        -I
//        C:\Users\THINK\Documents\GitHub\FTT-TwoLine-Operater\STM8L051\Project\main_code\EWSTM8\..\..\..\Utilities\STM8_EVAL\Common\
//        -I
//        C:\Users\THINK\Documents\GitHub\FTT-TwoLine-Operater\STM8L051\Project\main_code\EWSTM8\..\..\..\Utilities\Misc\
//        --require_prototypes --vregs 16
//    List file    =  
//        C:\Users\THINK\Documents\GitHub\FTT-TwoLine-Operater\STM8L051\Project\main_code\EWSTM8\relase\List\stm8l15x_it.s
//
///////////////////////////////////////////////////////////////////////////////

        RTMODEL "__SystemLibrary", "DLib"
        RTMODEL "__code_model", "medium_or_large"
        RTMODEL "__core", "stm8"
        RTMODEL "__data_model", "medium"
        RTMODEL "__rt_version", "4"

        EXTERN ?inc32_l0_l0
        EXTERN ?load32_0x_l0
        EXTERN ?load32_l0_0x
        EXTERN ?pop_l0
        EXTERN ?pop_l1
        EXTERN ?push_l0
        EXTERN ?push_l1
        EXTERN ?w0
        EXTERN ?w1
        EXTERN EXTI_ClearITPendingBit
        EXTERN GPIO_ReadInputDataBit
        EXTERN Key1_InterruptPushflag
        EXTERN Key2_InterruptPushflag
        EXTERN LearnModeWaitForConfirm
        EXTERN RTC_ClearITPendingBit
        EXTERN Radio_Can_Operated
        EXTERN TIM2_ClearITPendingBit
        EXTERN TIM3_ClearITPendingBit
        EXTERN TIM3_Cmd
        EXTERN TIM4_ClearITPendingBit
        EXTERN TIM4_Cmd
        EXTERN WaitForConfirm_time
        EXTERN auto_exit_time
        EXTERN check_key1
        EXTERN check_key2
        EXTERN key1_time_count
        EXTERN key2_time_count
        EXTERN learn_mode
        EXTERN led_blink_time
        EXTERN receiveflag
        EXTERN rtc_flag
        EXTERN timer2_delay_time
        EXTERN timer2_need_delay
        EXTERN timer3_Operate_time

        PUBLIC EXTI0_IRQHandler
        PUBLIC EXTI3_IRQHandler
        PUBLIC EXTI7_IRQHandler
        PUBLIC RTC_CSSLSE_IRQHandler
        PUBLIC TIM2_UPD_OVF_TRG_BRK_USART2_TX_IRQHandler
        PUBLIC TIM3_UPD_OVF_TRG_BRK_USART3_TX_IRQHandler
        PUBLIC TIM4_UPD_OVF_TRG_IRQHandler
        PUBLIC _interrupt_10
        PUBLIC _interrupt_13
        PUBLIC _interrupt_17
        PUBLIC _interrupt_21
        PUBLIC _interrupt_23
        PUBLIC _interrupt_27
        PUBLIC _interrupt_6
        PUBLIC ten_second
        
          CFI Names cfiNames0
          CFI StackFrame CFA SP DATA
          CFI Resource A:8, XL:8, XH:8, YL:8, YH:8, SP:16, CC:8, PC:24, PCL:8
          CFI Resource PCH:8, PCE:8, ?b0:8, ?b1:8, ?b2:8, ?b3:8, ?b4:8, ?b5:8
          CFI Resource ?b6:8, ?b7:8, ?b8:8, ?b9:8, ?b10:8, ?b11:8, ?b12:8, ?b13:8
          CFI Resource ?b14:8, ?b15:8
          CFI ResourceParts PC PCE, PCH, PCL
          CFI EndNames cfiNames0
        
          CFI Common cfiCommon0 Using cfiNames0
          CFI CodeAlign 1
          CFI DataAlign 1
          CFI ReturnAddress PC CODE
          CFI CFA SP+9
          CFI A Frame(CFA, -7)
          CFI XL Frame(CFA, -5)
          CFI XH Frame(CFA, -6)
          CFI YL Frame(CFA, -3)
          CFI YH Frame(CFA, -4)
          CFI CC Frame(CFA, -8)
          CFI PC Frame(CFA, -2)
          CFI PCL Undefined
          CFI PCH Undefined
          CFI PCE Undefined
          CFI ?b0 SameValue
          CFI ?b1 SameValue
          CFI ?b2 SameValue
          CFI ?b3 SameValue
          CFI ?b4 SameValue
          CFI ?b5 SameValue
          CFI ?b6 SameValue
          CFI ?b7 SameValue
          CFI ?b8 SameValue
          CFI ?b9 SameValue
          CFI ?b10 SameValue
          CFI ?b11 SameValue
          CFI ?b12 SameValue
          CFI ?b13 SameValue
          CFI ?b14 SameValue
          CFI ?b15 SameValue
          CFI EndCommon cfiCommon0
        
        
          CFI Common cfiCommon1 Using cfiNames0
          CFI CodeAlign 1
          CFI DataAlign 1
          CFI ReturnAddress PC CODE
          CFI CFA SP+3
          CFI A SameValue
          CFI XL SameValue
          CFI XH SameValue
          CFI YL SameValue
          CFI YH SameValue
          CFI CC Undefined
          CFI PC Frame(CFA, -2)
          CFI PCL Undefined
          CFI PCH Undefined
          CFI PCE Undefined
          CFI ?b0 SameValue
          CFI ?b1 SameValue
          CFI ?b2 SameValue
          CFI ?b3 SameValue
          CFI ?b4 SameValue
          CFI ?b5 SameValue
          CFI ?b6 SameValue
          CFI ?b7 SameValue
          CFI ?b8 SameValue
          CFI ?b9 SameValue
          CFI ?b10 SameValue
          CFI ?b11 SameValue
          CFI ?b12 SameValue
          CFI ?b13 SameValue
          CFI ?b14 SameValue
          CFI ?b15 SameValue
          CFI EndCommon cfiCommon1
        
// C:\Users\THINK\Documents\GitHub\FTT-TwoLine-Operater\STM8L051\Project\main_code\stm8l15x_it.c
//    1 #include "stm8l15x_it.h"
//    2 #ifdef _COSMIC_
//    3 INTERRUPT_HANDLER(NonHandledInterrupt,0)
//    4 {
//    5 }
//    6 #endif
//    7 
//    8 
//    9 extern  unsigned char   receiveflag;
//   10 extern  unsigned char   Key1_InterruptPushflag;        //按键1 中断标识
//   11 extern  unsigned char   Key2_InterruptPushflag;        //按键2 中断标识
//   12 extern  unsigned long   key1_time_count;               //按键1 计时
//   13 extern  unsigned long   key2_time_count;
//   14 extern  unsigned long   timer2_delay_time;
//   15 extern  unsigned char   learn_mode;
//   16 extern  unsigned long   auto_exit_time;               //自动退出学习模式 计时
//   17 extern  unsigned char   led_blink_time;               //LED闪烁计时
//   18 extern  unsigned char   LearnModeWaitForConfirm;
//   19 extern  unsigned long   WaitForConfirm_time;
//   20 extern  unsigned long   timer3_Operate_time;
//   21 extern  unsigned char   Radio_Can_Operated ;
//   22 extern  unsigned char   check_key1;
//   23 extern  unsigned char   check_key2;
//   24 extern  unsigned char   timer2_need_delay;

        SECTION `.near.bss`:DATA:REORDER:NOROOT(0)
//   25 unsigned long           ten_second = 0;
ten_second:
        DS8 4
//   26 extern  unsigned char   rtc_flag;
//   27 
//   28 
//   29 /* RTC定时唤醒 */

        SECTION `.far_func.text`:CODE:REORDER:NOROOT(0)
?Subroutine2:
          CFI Block cfiCond0 Using cfiCommon0
          CFI Function TIM3_UPD_OVF_TRG_BRK_USART3_TX_IRQHandler
          CFI Conditional ??CrossCallReturnLabel_14
          CFI ?b4 Frame(CFA, -16)
          CFI ?b5 Frame(CFA, -15)
          CFI ?b6 Frame(CFA, -14)
          CFI ?b7 Frame(CFA, -13)
          CFI ?b0 Frame(CFA, -12)
          CFI ?b1 Frame(CFA, -11)
          CFI ?b2 Frame(CFA, -10)
          CFI ?b3 Frame(CFA, -9)
          CFI CFA SP+20
          CFI Block cfiCond1 Using cfiCommon0
          CFI (cfiCond1) Function TIM2_UPD_OVF_TRG_BRK_USART2_TX_IRQHandler
          CFI (cfiCond1) Conditional ??CrossCallReturnLabel_15
          CFI (cfiCond1) ?b4 Frame(CFA, -16)
          CFI (cfiCond1) ?b5 Frame(CFA, -15)
          CFI (cfiCond1) ?b6 Frame(CFA, -14)
          CFI (cfiCond1) ?b7 Frame(CFA, -13)
          CFI (cfiCond1) ?b0 Frame(CFA, -12)
          CFI (cfiCond1) ?b1 Frame(CFA, -11)
          CFI (cfiCond1) ?b2 Frame(CFA, -10)
          CFI (cfiCond1) ?b3 Frame(CFA, -9)
          CFI (cfiCond1) CFA SP+20
          CFI Block cfiCond2 Using cfiCommon0
          CFI (cfiCond2) Function RTC_CSSLSE_IRQHandler
          CFI (cfiCond2) Conditional ??CrossCallReturnLabel_16
          CFI (cfiCond2) ?b4 Frame(CFA, -16)
          CFI (cfiCond2) ?b5 Frame(CFA, -15)
          CFI (cfiCond2) ?b6 Frame(CFA, -14)
          CFI (cfiCond2) ?b7 Frame(CFA, -13)
          CFI (cfiCond2) ?b0 Frame(CFA, -12)
          CFI (cfiCond2) ?b1 Frame(CFA, -11)
          CFI (cfiCond2) ?b2 Frame(CFA, -10)
          CFI (cfiCond2) ?b3 Frame(CFA, -9)
          CFI (cfiCond2) CFA SP+20
          CFI Block cfiPicker3 Using cfiCommon1
          CFI (cfiPicker3) NoFunction
          CFI (cfiPicker3) Picker
        CALLF     L:?load32_0x_l0
        LDW       X, S:?w0
        CPW       X, #0x0
        RETF
          CFI EndBlock cfiCond0
          CFI EndBlock cfiCond1
          CFI EndBlock cfiCond2
          CFI EndBlock cfiPicker3

        SECTION `.far_func.text`:CODE:REORDER:NOROOT(0)
?Subroutine0:
          CFI Block cfiCond4 Using cfiCommon0
          CFI Function TIM3_UPD_OVF_TRG_BRK_USART3_TX_IRQHandler
          CFI Conditional ??CrossCallReturnLabel_0
          CFI ?b4 Frame(CFA, -16)
          CFI ?b5 Frame(CFA, -15)
          CFI ?b6 Frame(CFA, -14)
          CFI ?b7 Frame(CFA, -13)
          CFI ?b0 Frame(CFA, -12)
          CFI ?b1 Frame(CFA, -11)
          CFI ?b2 Frame(CFA, -10)
          CFI ?b3 Frame(CFA, -9)
          CFI CFA SP+20
          CFI Block cfiCond5 Using cfiCommon0
          CFI (cfiCond5) Function TIM2_UPD_OVF_TRG_BRK_USART2_TX_IRQHandler
          CFI (cfiCond5) Conditional ??CrossCallReturnLabel_1
          CFI (cfiCond5) ?b4 Frame(CFA, -16)
          CFI (cfiCond5) ?b5 Frame(CFA, -15)
          CFI (cfiCond5) ?b6 Frame(CFA, -14)
          CFI (cfiCond5) ?b7 Frame(CFA, -13)
          CFI (cfiCond5) ?b0 Frame(CFA, -12)
          CFI (cfiCond5) ?b1 Frame(CFA, -11)
          CFI (cfiCond5) ?b2 Frame(CFA, -10)
          CFI (cfiCond5) ?b3 Frame(CFA, -9)
          CFI (cfiCond5) CFA SP+20
          CFI Block cfiCond6 Using cfiCommon0
          CFI (cfiCond6) Function TIM4_UPD_OVF_TRG_IRQHandler
          CFI (cfiCond6) Conditional ??CrossCallReturnLabel_2
          CFI (cfiCond6) ?b4 Frame(CFA, -16)
          CFI (cfiCond6) ?b5 Frame(CFA, -15)
          CFI (cfiCond6) ?b6 Frame(CFA, -14)
          CFI (cfiCond6) ?b7 Frame(CFA, -13)
          CFI (cfiCond6) ?b0 Frame(CFA, -12)
          CFI (cfiCond6) ?b1 Frame(CFA, -11)
          CFI (cfiCond6) ?b2 Frame(CFA, -10)
          CFI (cfiCond6) ?b3 Frame(CFA, -9)
          CFI (cfiCond6) CFA SP+20
          CFI Block cfiCond7 Using cfiCommon0
          CFI (cfiCond7) Function TIM4_UPD_OVF_TRG_IRQHandler
          CFI (cfiCond7) Conditional ??CrossCallReturnLabel_3
          CFI (cfiCond7) ?b4 Frame(CFA, -16)
          CFI (cfiCond7) ?b5 Frame(CFA, -15)
          CFI (cfiCond7) ?b6 Frame(CFA, -14)
          CFI (cfiCond7) ?b7 Frame(CFA, -13)
          CFI (cfiCond7) ?b0 Frame(CFA, -12)
          CFI (cfiCond7) ?b1 Frame(CFA, -11)
          CFI (cfiCond7) ?b2 Frame(CFA, -10)
          CFI (cfiCond7) ?b3 Frame(CFA, -9)
          CFI (cfiCond7) CFA SP+20
          CFI Block cfiCond8 Using cfiCommon0
          CFI (cfiCond8) Function TIM4_UPD_OVF_TRG_IRQHandler
          CFI (cfiCond8) Conditional ??CrossCallReturnLabel_4
          CFI (cfiCond8) ?b4 Frame(CFA, -16)
          CFI (cfiCond8) ?b5 Frame(CFA, -15)
          CFI (cfiCond8) ?b6 Frame(CFA, -14)
          CFI (cfiCond8) ?b7 Frame(CFA, -13)
          CFI (cfiCond8) ?b0 Frame(CFA, -12)
          CFI (cfiCond8) ?b1 Frame(CFA, -11)
          CFI (cfiCond8) ?b2 Frame(CFA, -10)
          CFI (cfiCond8) ?b3 Frame(CFA, -9)
          CFI (cfiCond8) CFA SP+20
          CFI Block cfiCond9 Using cfiCommon0
          CFI (cfiCond9) Function TIM4_UPD_OVF_TRG_IRQHandler
          CFI (cfiCond9) Conditional ??CrossCallReturnLabel_5
          CFI (cfiCond9) ?b4 Frame(CFA, -16)
          CFI (cfiCond9) ?b5 Frame(CFA, -15)
          CFI (cfiCond9) ?b6 Frame(CFA, -14)
          CFI (cfiCond9) ?b7 Frame(CFA, -13)
          CFI (cfiCond9) ?b0 Frame(CFA, -12)
          CFI (cfiCond9) ?b1 Frame(CFA, -11)
          CFI (cfiCond9) ?b2 Frame(CFA, -10)
          CFI (cfiCond9) ?b3 Frame(CFA, -9)
          CFI (cfiCond9) CFA SP+20
          CFI Block cfiCond10 Using cfiCommon0
          CFI (cfiCond10) Function RTC_CSSLSE_IRQHandler
          CFI (cfiCond10) Conditional ??CrossCallReturnLabel_6
          CFI (cfiCond10) ?b4 Frame(CFA, -16)
          CFI (cfiCond10) ?b5 Frame(CFA, -15)
          CFI (cfiCond10) ?b6 Frame(CFA, -14)
          CFI (cfiCond10) ?b7 Frame(CFA, -13)
          CFI (cfiCond10) ?b0 Frame(CFA, -12)
          CFI (cfiCond10) ?b1 Frame(CFA, -11)
          CFI (cfiCond10) ?b2 Frame(CFA, -10)
          CFI (cfiCond10) ?b3 Frame(CFA, -9)
          CFI (cfiCond10) CFA SP+20
          CFI Block cfiPicker11 Using cfiCommon1
          CFI (cfiPicker11) NoFunction
          CFI (cfiPicker11) Picker
        CALLF     L:?load32_l0_0x
        JPF       L:?inc32_l0_l0
          CFI EndBlock cfiCond4
          CFI EndBlock cfiCond5
          CFI EndBlock cfiCond6
          CFI EndBlock cfiCond7
          CFI EndBlock cfiCond8
          CFI EndBlock cfiCond9
          CFI EndBlock cfiCond10
          CFI EndBlock cfiPicker11

        SECTION `.far_func.text`:CODE:REORDER:NOROOT(0)
?Subroutine1:
          CFI Block cfiCond12 Using cfiCommon0
          CFI Function TIM3_UPD_OVF_TRG_BRK_USART3_TX_IRQHandler
          CFI Conditional ??CrossCallReturnLabel_7
          CFI CFA SP+12
          CFI Block cfiCond13 Using cfiCommon0
          CFI (cfiCond13) Function TIM2_UPD_OVF_TRG_BRK_USART2_TX_IRQHandler
          CFI (cfiCond13) Conditional ??CrossCallReturnLabel_8
          CFI (cfiCond13) CFA SP+12
          CFI Block cfiCond14 Using cfiCommon0
          CFI (cfiCond14) Function TIM4_UPD_OVF_TRG_IRQHandler
          CFI (cfiCond14) Conditional ??CrossCallReturnLabel_9
          CFI (cfiCond14) CFA SP+12
          CFI Block cfiCond15 Using cfiCommon0
          CFI (cfiCond15) Function EXTI7_IRQHandler
          CFI (cfiCond15) Conditional ??CrossCallReturnLabel_10
          CFI (cfiCond15) CFA SP+12
          CFI Block cfiCond16 Using cfiCommon0
          CFI (cfiCond16) Function EXTI0_IRQHandler
          CFI (cfiCond16) Conditional ??CrossCallReturnLabel_11
          CFI (cfiCond16) CFA SP+12
          CFI Block cfiCond17 Using cfiCommon0
          CFI (cfiCond17) Function EXTI3_IRQHandler
          CFI (cfiCond17) Conditional ??CrossCallReturnLabel_12
          CFI (cfiCond17) CFA SP+12
          CFI Block cfiCond18 Using cfiCommon0
          CFI (cfiCond18) Function RTC_CSSLSE_IRQHandler
          CFI (cfiCond18) Conditional ??CrossCallReturnLabel_13
          CFI (cfiCond18) CFA SP+12
          CFI Block cfiPicker19 Using cfiCommon1
          CFI (cfiPicker19) NoFunction
          CFI (cfiPicker19) Picker
        PUSH      CC
          CFI (cfiCond12) CFA SP+13
          CFI (cfiCond13) CFA SP+13
          CFI (cfiCond14) CFA SP+13
          CFI (cfiCond15) CFA SP+13
          CFI (cfiCond16) CFA SP+13
          CFI (cfiCond17) CFA SP+13
          CFI (cfiCond18) CFA SP+13
          CFI (cfiPicker19) CFA SP+4
        POP       A
          CFI (cfiCond12) CFA SP+12
          CFI (cfiCond13) CFA SP+12
          CFI (cfiCond14) CFA SP+12
          CFI (cfiCond15) CFA SP+12
          CFI (cfiCond16) CFA SP+12
          CFI (cfiCond17) CFA SP+12
          CFI (cfiCond18) CFA SP+12
          CFI (cfiPicker19) CFA SP+3
        AND       A, #0xbf
        PUSH      A
          CFI (cfiCond12) CFA SP+13
          CFI (cfiCond13) CFA SP+13
          CFI (cfiCond14) CFA SP+13
          CFI (cfiCond15) CFA SP+13
          CFI (cfiCond16) CFA SP+13
          CFI (cfiCond17) CFA SP+13
          CFI (cfiCond18) CFA SP+13
          CFI (cfiPicker19) CFA SP+4
        POP       CC
          CFI (cfiCond12) CFA SP+12
          CFI (cfiCond13) CFA SP+12
          CFI (cfiCond14) CFA SP+12
          CFI (cfiCond15) CFA SP+12
          CFI (cfiCond16) CFA SP+12
          CFI (cfiCond17) CFA SP+12
          CFI (cfiCond18) CFA SP+12
          CFI (cfiPicker19) CFA SP+3
        RETF
          CFI EndBlock cfiCond12
          CFI EndBlock cfiCond13
          CFI EndBlock cfiCond14
          CFI EndBlock cfiCond15
          CFI EndBlock cfiCond16
          CFI EndBlock cfiCond17
          CFI EndBlock cfiCond18
          CFI EndBlock cfiPicker19

        SECTION `.far_func.text`:CODE:REORDER:NOROOT(0)
          CFI Block cfiBlock20 Using cfiCommon0
          CFI Function RTC_CSSLSE_IRQHandler
        CODE
//   30 INTERRUPT_HANDLER(RTC_CSSLSE_IRQHandler,4)
//   31 {
RTC_CSSLSE_IRQHandler:
_interrupt_6:
        CALLF     ?Subroutine1
??CrossCallReturnLabel_13:
        CALLF     L:?push_l0
          CFI ?b3 Frame(CFA, -9)
          CFI ?b2 Frame(CFA, -10)
          CFI ?b1 Frame(CFA, -11)
          CFI ?b0 Frame(CFA, -12)
          CFI CFA SP+13
        CALLF     L:?push_l1
          CFI ?b7 Frame(CFA, -13)
          CFI ?b6 Frame(CFA, -14)
          CFI ?b5 Frame(CFA, -15)
          CFI ?b4 Frame(CFA, -16)
          CFI CFA SP+17
//   32     ten_second++;
        LDW       X, #ten_second
        CALLF     ?Subroutine0
??CrossCallReturnLabel_6:
        LDW       X, #ten_second
        CALLF     ?Subroutine2
//   33     if(ten_second > 1)
??CrossCallReturnLabel_16:
        JRNE      L:??RTC_CSSLSE_IRQHandler_0
        LDW       X, S:?w1
        CPW       X, #0x2
??RTC_CSSLSE_IRQHandler_0:
        JRC       L:??RTC_CSSLSE_IRQHandler_1
//   34     {
//   35        ten_second = 0;
        CLRW      X
        LDW       L:ten_second, X
        LDW       L:ten_second + 2, X
//   36        rtc_flag = 1;
        MOV       L:rtc_flag, #0x1
//   37     }
//   38     RTC_ClearITPendingBit(RTC_IT_WUT);
??RTC_CSSLSE_IRQHandler_1:
        LDW       X, #0x40
        CALLF     RTC_ClearITPendingBit
//   39 }
        CALLF     L:?pop_l1
          CFI ?b4 SameValue
          CFI ?b5 SameValue
          CFI ?b6 SameValue
          CFI ?b7 SameValue
          CFI CFA SP+13
        CALLF     L:?pop_l0
          CFI ?b0 SameValue
          CFI ?b1 SameValue
          CFI ?b2 SameValue
          CFI ?b3 SameValue
          CFI CFA SP+9
        IRET
          CFI EndBlock cfiBlock20
//   40 
//   41 /* 接收报文IO中断 */

        SECTION `.far_func.text`:CODE:REORDER:NOROOT(0)
          CFI Block cfiBlock21 Using cfiCommon0
          CFI Function EXTI3_IRQHandler
        CODE
//   42 INTERRUPT_HANDLER(EXTI3_IRQHandler,11)
//   43 {   
EXTI3_IRQHandler:
_interrupt_13:
        CALLF     ?Subroutine1
??CrossCallReturnLabel_12:
        CALLF     L:?push_l0
          CFI ?b3 Frame(CFA, -9)
          CFI ?b2 Frame(CFA, -10)
          CFI ?b1 Frame(CFA, -11)
          CFI ?b0 Frame(CFA, -12)
          CFI CFA SP+13
        CALLF     L:?push_l1
          CFI ?b7 Frame(CFA, -13)
          CFI ?b6 Frame(CFA, -14)
          CFI ?b5 Frame(CFA, -15)
          CFI ?b4 Frame(CFA, -16)
          CFI CFA SP+17
//   44   //   ten_second = 0;
//   45      receiveflag = 1; 
        MOV       L:receiveflag, #0x1
//   46      TIM3_Cmd(ENABLE);
        LD        A, #0x1
        CALLF     TIM3_Cmd
//   47      EXTI_ClearITPendingBit(EXTI_IT_Pin3);
        LDW       X, #0x8
        CALLF     EXTI_ClearITPendingBit
//   48 }
        CALLF     L:?pop_l1
          CFI ?b4 SameValue
          CFI ?b5 SameValue
          CFI ?b6 SameValue
          CFI ?b7 SameValue
          CFI CFA SP+13
        CALLF     L:?pop_l0
          CFI ?b0 SameValue
          CFI ?b1 SameValue
          CFI ?b2 SameValue
          CFI ?b3 SameValue
          CFI CFA SP+9
        IRET
          CFI EndBlock cfiBlock21
//   49 
//   50 /* 按键1 中断 */

        SECTION `.far_func.text`:CODE:REORDER:NOROOT(0)
          CFI Block cfiBlock22 Using cfiCommon0
          CFI Function EXTI0_IRQHandler
        CODE
//   51 INTERRUPT_HANDLER(EXTI0_IRQHandler,8)
//   52 {   
EXTI0_IRQHandler:
_interrupt_10:
        CALLF     ?Subroutine1
??CrossCallReturnLabel_11:
        CALLF     L:?push_l0
          CFI ?b3 Frame(CFA, -9)
          CFI ?b2 Frame(CFA, -10)
          CFI ?b1 Frame(CFA, -11)
          CFI ?b0 Frame(CFA, -12)
          CFI CFA SP+13
        CALLF     L:?push_l1
          CFI ?b7 Frame(CFA, -13)
          CFI ?b6 Frame(CFA, -14)
          CFI ?b5 Frame(CFA, -15)
          CFI ?b4 Frame(CFA, -16)
          CFI CFA SP+17
//   53     key1_time_count = 0;
        CLRW      X
        LDW       L:key1_time_count, X
        LDW       L:key1_time_count + 2, X
//   54     auto_exit_time  = 0;
        CALLF     ?Subroutine3
//   55     TIM4_Cmd(ENABLE);      
//   56     Key1_InterruptPushflag = 1;
??CrossCallReturnLabel_17:
        MOV       L:Key1_InterruptPushflag, #0x1
//   57     EXTI_ClearITPendingBit(EXTI_IT_Pin0);
        CLRW      X
        INCW      X
        CALLF     EXTI_ClearITPendingBit
//   58 }
        CALLF     L:?pop_l1
          CFI ?b4 SameValue
          CFI ?b5 SameValue
          CFI ?b6 SameValue
          CFI ?b7 SameValue
          CFI CFA SP+13
        CALLF     L:?pop_l0
          CFI ?b0 SameValue
          CFI ?b1 SameValue
          CFI ?b2 SameValue
          CFI ?b3 SameValue
          CFI CFA SP+9
        IRET
          CFI EndBlock cfiBlock22

        SECTION `.far_func.text`:CODE:REORDER:NOROOT(0)
?Subroutine3:
          CFI Block cfiCond23 Using cfiCommon0
          CFI Function EXTI7_IRQHandler
          CFI Conditional ??CrossCallReturnLabel_18
          CFI ?b4 Frame(CFA, -16)
          CFI ?b5 Frame(CFA, -15)
          CFI ?b6 Frame(CFA, -14)
          CFI ?b7 Frame(CFA, -13)
          CFI ?b0 Frame(CFA, -12)
          CFI ?b1 Frame(CFA, -11)
          CFI ?b2 Frame(CFA, -10)
          CFI ?b3 Frame(CFA, -9)
          CFI CFA SP+20
          CFI Block cfiCond24 Using cfiCommon0
          CFI (cfiCond24) Function EXTI0_IRQHandler
          CFI (cfiCond24) Conditional ??CrossCallReturnLabel_17
          CFI (cfiCond24) ?b4 Frame(CFA, -16)
          CFI (cfiCond24) ?b5 Frame(CFA, -15)
          CFI (cfiCond24) ?b6 Frame(CFA, -14)
          CFI (cfiCond24) ?b7 Frame(CFA, -13)
          CFI (cfiCond24) ?b0 Frame(CFA, -12)
          CFI (cfiCond24) ?b1 Frame(CFA, -11)
          CFI (cfiCond24) ?b2 Frame(CFA, -10)
          CFI (cfiCond24) ?b3 Frame(CFA, -9)
          CFI (cfiCond24) CFA SP+20
          CFI Block cfiPicker25 Using cfiCommon1
          CFI (cfiPicker25) NoFunction
          CFI (cfiPicker25) Picker
        LDW       L:auto_exit_time, X
        LDW       L:auto_exit_time + 2, X
        LD        A, #0x1
        JPF       TIM4_Cmd
          CFI EndBlock cfiCond23
          CFI EndBlock cfiCond24
          CFI EndBlock cfiPicker25
//   59 
//   60 /* 按键2 中断  */  

        SECTION `.far_func.text`:CODE:REORDER:NOROOT(0)
          CFI Block cfiBlock26 Using cfiCommon0
          CFI Function EXTI7_IRQHandler
        CODE
//   61 INTERRUPT_HANDLER(EXTI7_IRQHandler,15)
//   62 {
EXTI7_IRQHandler:
_interrupt_17:
        CALLF     ?Subroutine1
??CrossCallReturnLabel_10:
        CALLF     L:?push_l0
          CFI ?b3 Frame(CFA, -9)
          CFI ?b2 Frame(CFA, -10)
          CFI ?b1 Frame(CFA, -11)
          CFI ?b0 Frame(CFA, -12)
          CFI CFA SP+13
        CALLF     L:?push_l1
          CFI ?b7 Frame(CFA, -13)
          CFI ?b6 Frame(CFA, -14)
          CFI ?b5 Frame(CFA, -15)
          CFI ?b4 Frame(CFA, -16)
          CFI CFA SP+17
//   63     key2_time_count = 0;
        CLRW      X
        LDW       L:key2_time_count, X
        LDW       L:key2_time_count + 2, X
//   64     auto_exit_time  = 0;
        CALLF     ?Subroutine3
//   65     TIM4_Cmd(ENABLE);      
//   66     Key2_InterruptPushflag = 1;
??CrossCallReturnLabel_18:
        MOV       L:Key2_InterruptPushflag, #0x1
//   67     EXTI_ClearITPendingBit(EXTI_IT_Pin7);
        LDW       X, #0x80
        CALLF     EXTI_ClearITPendingBit
//   68 }
        CALLF     L:?pop_l1
          CFI ?b4 SameValue
          CFI ?b5 SameValue
          CFI ?b6 SameValue
          CFI ?b7 SameValue
          CFI CFA SP+13
        CALLF     L:?pop_l0
          CFI ?b0 SameValue
          CFI ?b1 SameValue
          CFI ?b2 SameValue
          CFI ?b3 SameValue
          CFI CFA SP+9
        IRET
          CFI EndBlock cfiBlock26
//   69 
//   70 /* 
//   71 Time4定时器中断 
//   72 按键计时
//   73 */

        SECTION `.far_func.text`:CODE:REORDER:NOROOT(0)
          CFI Block cfiBlock27 Using cfiCommon0
          CFI Function TIM4_UPD_OVF_TRG_IRQHandler
        CODE
//   74 INTERRUPT_HANDLER(TIM4_UPD_OVF_TRG_IRQHandler, 25)
//   75 {         
TIM4_UPD_OVF_TRG_IRQHandler:
_interrupt_27:
        CALLF     ?Subroutine1
??CrossCallReturnLabel_9:
        CALLF     L:?push_l0
          CFI ?b3 Frame(CFA, -9)
          CFI ?b2 Frame(CFA, -10)
          CFI ?b1 Frame(CFA, -11)
          CFI ?b0 Frame(CFA, -12)
          CFI CFA SP+13
        CALLF     L:?push_l1
          CFI ?b7 Frame(CFA, -13)
          CFI ?b6 Frame(CFA, -14)
          CFI ?b5 Frame(CFA, -15)
          CFI ?b4 Frame(CFA, -16)
          CFI CFA SP+17
//   76     if(Key1_InterruptPushflag == 1)
        LD        A, L:Key1_InterruptPushflag
        CP        A, #0x1
        JRNE      L:??TIM4_UPD_OVF_TRG_IRQHandler_0
//   77     { 
//   78         check_key1 = 1;
        MOV       L:check_key1, #0x1
//   79         if(GPIO_ReadInputDataBit(GPIOB,GPIO_Pin_0) == 0)
        LD        A, #0x1
        LDW       X, #0x5005
        CALLF     GPIO_ReadInputDataBit
        CP        A, #0x0
        JRNE      L:??TIM4_UPD_OVF_TRG_IRQHandler_0
//   80         { key1_time_count++; }      
        LDW       X, #key1_time_count
        CALLF     ?Subroutine0
//   81     }
??CrossCallReturnLabel_2:
        LDW       X, #key1_time_count
        CALLF     L:?load32_0x_l0
//   82     if(Key2_InterruptPushflag == 1)
??TIM4_UPD_OVF_TRG_IRQHandler_0:
        LD        A, L:Key2_InterruptPushflag
        CP        A, #0x1
        JRNE      L:??TIM4_UPD_OVF_TRG_IRQHandler_1
//   83     {      
//   84         check_key2 = 1;
        MOV       L:check_key2, #0x1
//   85         if(GPIO_ReadInputDataBit(GPIOC,GPIO_Pin_6) == 0)
        LD        A, #0x40
        LDW       X, #0x500a
        CALLF     GPIO_ReadInputDataBit
        CP        A, #0x0
        JRNE      L:??TIM4_UPD_OVF_TRG_IRQHandler_1
//   86         { key2_time_count++; }    
        LDW       X, #key2_time_count
        CALLF     ?Subroutine0
//   87     }
??CrossCallReturnLabel_3:
        LDW       X, #key2_time_count
        CALLF     L:?load32_0x_l0
//   88                 
//   89     if(learn_mode == 0x11)
??TIM4_UPD_OVF_TRG_IRQHandler_1:
        LD        A, L:learn_mode
        CP        A, #0x11
        JRNE      L:??TIM4_UPD_OVF_TRG_IRQHandler_2
//   90     {        
//   91         auto_exit_time++;       
        LDW       X, #auto_exit_time
        CALLF     ?Subroutine0
??CrossCallReturnLabel_4:
        LDW       X, #auto_exit_time
        CALLF     L:?load32_0x_l0
//   92         led_blink_time++;        
        LD        A, L:led_blink_time
        INC       A
        LD        L:led_blink_time, A
//   93     }        
//   94     if(LearnModeWaitForConfirm == 0x11)
??TIM4_UPD_OVF_TRG_IRQHandler_2:
        LD        A, L:LearnModeWaitForConfirm
        CP        A, #0x11
        JRNE      L:??TIM4_UPD_OVF_TRG_IRQHandler_3
//   95     {
//   96         auto_exit_time = 0;
        CLRW      X
        LDW       L:auto_exit_time, X
        LDW       L:auto_exit_time + 2, X
//   97         WaitForConfirm_time++;
        LDW       X, #WaitForConfirm_time
        CALLF     ?Subroutine0
//   98     }   
??CrossCallReturnLabel_5:
        LDW       X, #WaitForConfirm_time
        CALLF     L:?load32_0x_l0
//   99     
//  100     if(key1_time_count > 4000)
??TIM4_UPD_OVF_TRG_IRQHandler_3:
        LDW       X, #key1_time_count
        CALLF     L:?load32_l0_0x
        LDW       X, S:?w0
        CPW       X, #0x0
        JRNE      L:??TIM4_UPD_OVF_TRG_IRQHandler_4
        LDW       X, S:?w1
        CPW       X, #0xfa1
??TIM4_UPD_OVF_TRG_IRQHandler_4:
        JRC       L:??TIM4_UPD_OVF_TRG_IRQHandler_5
//  101     {key1_time_count = 0;}
        CLRW      X
        LDW       L:key1_time_count, X
        LDW       L:key1_time_count + 2, X
//  102     if(key2_time_count > 4000)
??TIM4_UPD_OVF_TRG_IRQHandler_5:
        LDW       X, #key2_time_count
        CALLF     L:?load32_l0_0x
        LDW       X, S:?w0
        CPW       X, #0x0
        JRNE      L:??TIM4_UPD_OVF_TRG_IRQHandler_6
        LDW       X, S:?w1
        CPW       X, #0xfa1
??TIM4_UPD_OVF_TRG_IRQHandler_6:
        JRC       L:??TIM4_UPD_OVF_TRG_IRQHandler_7
//  103     {key2_time_count = 0;}
        CLRW      X
        LDW       L:key2_time_count, X
        LDW       L:key2_time_count + 2, X
//  104     
//  105     TIM4_ClearITPendingBit(TIM4_IT_Update);
??TIM4_UPD_OVF_TRG_IRQHandler_7:
        LD        A, #0x1
        CALLF     TIM4_ClearITPendingBit
//  106 }
        CALLF     L:?pop_l1
          CFI ?b4 SameValue
          CFI ?b5 SameValue
          CFI ?b6 SameValue
          CFI ?b7 SameValue
          CFI CFA SP+13
        CALLF     L:?pop_l0
          CFI ?b0 SameValue
          CFI ?b1 SameValue
          CFI ?b2 SameValue
          CFI ?b3 SameValue
          CFI CFA SP+9
        IRET
          CFI EndBlock cfiBlock27
//  107 
//  108 /* 
//  109 Time2定时器中断
//  110 延时计时
//  111 */

        SECTION `.far_func.text`:CODE:REORDER:NOROOT(0)
          CFI Block cfiBlock28 Using cfiCommon0
          CFI Function TIM2_UPD_OVF_TRG_BRK_USART2_TX_IRQHandler
        CODE
//  112 INTERRUPT_HANDLER(TIM2_UPD_OVF_TRG_BRK_USART2_TX_IRQHandler, 19)
//  113 {      
TIM2_UPD_OVF_TRG_BRK_USART2_TX_IRQHandler:
_interrupt_21:
        CALLF     ?Subroutine1
??CrossCallReturnLabel_8:
        CALLF     L:?push_l0
          CFI ?b3 Frame(CFA, -9)
          CFI ?b2 Frame(CFA, -10)
          CFI ?b1 Frame(CFA, -11)
          CFI ?b0 Frame(CFA, -12)
          CFI CFA SP+13
        CALLF     L:?push_l1
          CFI ?b7 Frame(CFA, -13)
          CFI ?b6 Frame(CFA, -14)
          CFI ?b5 Frame(CFA, -15)
          CFI ?b4 Frame(CFA, -16)
          CFI CFA SP+17
//  114      if(timer2_need_delay)
        LD        A, L:timer2_need_delay
        JREQ      L:??TIM2_UPD_OVF_TRG_BRK_USART2_TX_IRQHandler_0
//  115      {
//  116          timer2_delay_time ++;  
        LDW       X, #timer2_delay_time
        CALLF     ?Subroutine0
??CrossCallReturnLabel_1:
        LDW       X, #timer2_delay_time
        CALLF     ?Subroutine2
//  117          if(timer2_delay_time > 4000)
??CrossCallReturnLabel_15:
        JRNE      L:??TIM2_UPD_OVF_TRG_BRK_USART2_TX_IRQHandler_1
        LDW       X, S:?w1
        CPW       X, #0xfa1
??TIM2_UPD_OVF_TRG_BRK_USART2_TX_IRQHandler_1:
        JRC       L:??TIM2_UPD_OVF_TRG_BRK_USART2_TX_IRQHandler_0
//  118          { timer2_delay_time = 0; }         
        CLRW      X
        LDW       L:timer2_delay_time, X
        LDW       L:timer2_delay_time + 2, X
//  119      }
//  120     
//  121      TIM2_ClearITPendingBit(TIM2_IT_Update);
??TIM2_UPD_OVF_TRG_BRK_USART2_TX_IRQHandler_0:
        LD        A, #0x1
        CALLF     TIM2_ClearITPendingBit
//  122 }
        CALLF     L:?pop_l1
          CFI ?b4 SameValue
          CFI ?b5 SameValue
          CFI ?b6 SameValue
          CFI ?b7 SameValue
          CFI CFA SP+13
        CALLF     L:?pop_l0
          CFI ?b0 SameValue
          CFI ?b1 SameValue
          CFI ?b2 SameValue
          CFI ?b3 SameValue
          CFI CFA SP+9
        IRET
          CFI EndBlock cfiBlock28
//  123 
//  124 
//  125 /* 
//  126 Time3定时器中断 
//  127 接收报文时开启 用以实现多个报文接收时只操作一次
//  128 */

        SECTION `.far_func.text`:CODE:REORDER:NOROOT(0)
          CFI Block cfiBlock29 Using cfiCommon0
          CFI Function TIM3_UPD_OVF_TRG_BRK_USART3_TX_IRQHandler
        CODE
//  129 INTERRUPT_HANDLER(TIM3_UPD_OVF_TRG_BRK_USART3_TX_IRQHandler, 21)
//  130 {
TIM3_UPD_OVF_TRG_BRK_USART3_TX_IRQHandler:
_interrupt_23:
        CALLF     ?Subroutine1
??CrossCallReturnLabel_7:
        CALLF     L:?push_l0
          CFI ?b3 Frame(CFA, -9)
          CFI ?b2 Frame(CFA, -10)
          CFI ?b1 Frame(CFA, -11)
          CFI ?b0 Frame(CFA, -12)
          CFI CFA SP+13
        CALLF     L:?push_l1
          CFI ?b7 Frame(CFA, -13)
          CFI ?b6 Frame(CFA, -14)
          CFI ?b5 Frame(CFA, -15)
          CFI ?b4 Frame(CFA, -16)
          CFI CFA SP+17
//  131      timer3_Operate_time ++;
        LDW       X, #timer3_Operate_time
        CALLF     ?Subroutine0
??CrossCallReturnLabel_0:
        LDW       X, #timer3_Operate_time
        CALLF     ?Subroutine2
//  132      
//  133      if(timer3_Operate_time > 15)
??CrossCallReturnLabel_14:
        JRNE      L:??TIM3_UPD_OVF_TRG_BRK_USART3_TX_IRQHandler_0
        LDW       X, S:?w1
        CPW       X, #0x10
??TIM3_UPD_OVF_TRG_BRK_USART3_TX_IRQHandler_0:
        JRC       L:??TIM3_UPD_OVF_TRG_BRK_USART3_TX_IRQHandler_1
//  134      {
//  135          timer3_Operate_time = 0;
        CLRW      X
        LDW       L:timer3_Operate_time, X
        LDW       L:timer3_Operate_time + 2, X
//  136          Radio_Can_Operated = 1;     //恢复可操作状态
        MOV       L:Radio_Can_Operated, #0x1
//  137          TIM3_Cmd(DISABLE);  
        CLR       A
        CALLF     TIM3_Cmd
//  138      }       
//  139      TIM3_ClearITPendingBit(TIM3_IT_Update);
??TIM3_UPD_OVF_TRG_BRK_USART3_TX_IRQHandler_1:
        LD        A, #0x1
        CALLF     TIM3_ClearITPendingBit
//  140 }
        CALLF     L:?pop_l1
          CFI ?b4 SameValue
          CFI ?b5 SameValue
          CFI ?b6 SameValue
          CFI ?b7 SameValue
          CFI CFA SP+13
        CALLF     L:?pop_l0
          CFI ?b0 SameValue
          CFI ?b1 SameValue
          CFI ?b2 SameValue
          CFI ?b3 SameValue
          CFI CFA SP+9
        IRET
          CFI EndBlock cfiBlock29

        SECTION VREGS:DATA:REORDER:NOROOT(0)

        END
//  141 
//  142 
//  143 
//  144 
//  145 
//  146 
//  147 
//  148 
// 
// 565 bytes in section .far_func.text
//   4 bytes in section .near.bss
// 
// 565 bytes of CODE memory
//   4 bytes of DATA memory
//
//Errors: none
//Warnings: none
